(lp0
(S'sin'
p1
S'fn'
p2
cdill.dill
_create_function
p3
(cdill.dill
_load_type
p4
(S'CodeType'
p5
tp6
Rp7
(I1
I1
I2
I67
S't\x00\x00j\x01\x00|\x00\x00\x83\x01\x00S'
p8
(Ntp9
(S'np'
p10
g1
tp11
(S'x'
p12
tp13
S'generate_examples.py'
p14
S'<lambda>'
p15
I12
S''
p16
(t(ttp17
Rp18
c__main__
__dict__
g15
NN(dp19
tp20
Rp21
tp22
a(S'cos'
p23
g2
g3
(g7
(I1
I1
I2
I67
S't\x00\x00j\x01\x00|\x00\x00\x83\x01\x00S'
p24
(Ntp25
(g10
g23
tp26
(g12
tp27
S'generate_examples.py'
p28
g15
I13
S''
p29
(t(ttp30
Rp31
c__main__
__dict__
g15
NN(dp32
tp33
Rp34
tp35
a(g12
S'const'
p36
g3
(g7
(I1
I1
I1
I67
S't\x00\x00S'
p37
(Ntp38
(S'True'
p39
tp40
(S'_'
p41
tp42
S'generate_examples.py'
p43
g15
I14
S''
p44
(t(ttp45
Rp46
c__main__
__dict__
g15
NN(dp47
tp48
Rp49
tp50
a(S'+'
p51
S'op'
p52
g3
(g7
(I2
I2
I2
I67
S'|\x00\x00|\x01\x00\x17S'
p53
(Ntp54
(t(g12
S'y'
p55
tp56
S'generate_examples.py'
p57
g15
I15
S''
p58
(t(ttp59
Rp60
c__main__
__dict__
g15
NN(dp61
tp62
Rp63
tp64
a(S'*'
p65
g52
g3
(g7
(I2
I2
I2
I67
S'|\x00\x00|\x01\x00\x14S'
p66
(Ntp67
(t(g12
g55
tp68
S'generate_examples.py'
p69
g15
I16
S''
p70
(t(ttp71
Rp72
c__main__
__dict__
g15
NN(dp73
tp74
Rp75
tp76
a(S'tanh'
p77
g2
g3
(g7
(I1
I1
I2
I67
S't\x00\x00j\x01\x00|\x00\x00\x83\x01\x00S'
p78
(Ntp79
(g10
g77
tp80
(g12
tp81
S'generate_examples.py'
p82
g15
I17
S''
p83
(t(ttp84
Rp85
c__main__
__dict__
g15
NN(dp86
tp87
Rp88
tp89
a.