(lp0
(S'sin'
p1
S'fn'
p2
cdill.dill
_create_function
p3
(cdill.dill
_load_type
p4
(S'CodeType'
p5
tp6
Rp7
(I1
I1
I2
I67
S't\x00\x00j\x01\x00|\x00\x00\x83\x01\x00S'
p8
(Ntp9
(S'np'
p10
g1
tp11
(S'x'
p12
tp13
S'generate_examples.py'
p14
S'<lambda>'
p15
I20
S''
p16
(t(ttp17
Rp18
c__main__
__dict__
g15
NN(dp19
tp20
Rp21
tp22
a(g12
S'var'
p23
g3
(g7
(I1
I1
I1
I67
S't\x00\x00S'
p24
(Ntp25
(S'True'
p26
tp27
(S'_'
p28
tp29
S'generate_examples.py'
p30
g15
I22
S''
p31
(t(ttp32
Rp33
c__main__
__dict__
g15
NN(dp34
tp35
Rp36
tp37
a(S'+'
p38
S'op'
p39
g3
(g7
(I2
I2
I2
I67
S'|\x00\x00|\x01\x00\x17S'
p40
(Ntp41
(t(g12
S'y'
p42
tp43
S'generate_examples.py'
p44
g15
I23
S''
p45
(t(ttp46
Rp47
c__main__
__dict__
g15
NN(dp48
tp49
Rp50
tp51
a(S'tanh'
p52
g2
g3
(g7
(I1
I1
I2
I67
S't\x00\x00j\x01\x00|\x00\x00\x83\x01\x00S'
p53
(Ntp54
(g10
g52
tp55
(g12
tp56
S'generate_examples.py'
p57
g15
I25
S''
p58
(t(ttp59
Rp60
c__main__
__dict__
g15
NN(dp61
tp62
Rp63
tp64
a(S'c'
p65
S'const'
p66
g3
(g7
(I1
I1
I1
I67
S't\x00\x00S'
p67
(Ntp68
(g26
tp69
(g28
tp70
S'generate_examples.py'
p71
g15
I26
S''
p72
(t(ttp73
Rp74
c__main__
__dict__
g15
NN(dp75
tp76
Rp77
tp78
a.