(lp0
(iequation_tree
EquationTree
p1
(dp2
S'head'
p3
(iequation_tree
Node
p4
(dp5
S'name'
p6
S'*'
p7
sS'val'
p8
NsS'nextL'
p9
(iequation_tree
Node
p10
(dp11
g6
S'x'
p12
sg8
Nsg9
NsS'eq_class'
p13
S'const'
p14
sS'nextR'
p15
NsS'anon_fn'
p16
NsS'string_rep'
p17
S''
p18
sbsg13
S'op'
p19
sg15
(iequation_tree
Node
p20
(dp21
g6
g12
sg8
Nsg9
Nsg13
g14
sg15
Nsg16
Nsg17
g18
sbsg16
cdill.dill
_create_function
p22
(cdill.dill
_load_type
p23
(S'CodeType'
p24
tp25
Rp26
(I2
I2
I2
I67
S'|\x00\x00|\x01\x00\x14S'
p27
(Ntp28
(t(g12
S'y'
p29
tp30
S'generate_examples.py'
p31
S'<lambda>'
p32
I16
S''
p33
(t(ttp34
Rp35
c__main__
__dict__
g32
NN(dp36
tp37
Rp38
sg17
g18
sbsg17
S'(x)*(x)'
p39
sba(iequation_tree
EquationTree
p40
(dp41
g3
(iequation_tree
Node
p42
(dp43
g6
S'sin'
p44
sg8
Nsg9
Nsg13
S'fn'
p45
sg15
(iequation_tree
Node
p46
(dp47
g6
g12
sg8
Nsg9
Nsg13
g14
sg15
Nsg16
Nsg17
g18
sbsg16
g22
(g26
(I1
I1
I2
I67
S't\x00\x00j\x01\x00|\x00\x00\x83\x01\x00S'
p48
(Ntp49
(S'np'
p50
g44
tp51
(g12
tp52
S'generate_examples.py'
p53
g32
I12
S''
p54
(t(ttp55
Rp56
c__main__
__dict__
g32
NN(dp57
tp58
Rp59
sg17
g18
sbsg17
S'sin(x)'
p60
sba(iequation_tree
EquationTree
p61
(dp62
g3
(iequation_tree
Node
p63
(dp64
g6
S'cos'
p65
sg8
Nsg9
Nsg13
g45
sg15
(iequation_tree
Node
p66
(dp67
g6
g12
sg8
Nsg9
Nsg13
g14
sg15
Nsg16
Nsg17
g18
sbsg16
g22
(g26
(I1
I1
I2
I67
S't\x00\x00j\x01\x00|\x00\x00\x83\x01\x00S'
p68
(Ntp69
(g50
g65
tp70
(g12
tp71
S'generate_examples.py'
p72
g32
I13
S''
p73
(t(ttp74
Rp75
c__main__
__dict__
g32
NN(dp76
tp77
Rp78
sg17
g18
sbsg17
S'cos(x)'
p79
sba(iequation_tree
EquationTree
p80
(dp81
g3
(iequation_tree
Node
p82
(dp83
g6
S'tanh'
p84
sg8
Nsg9
Nsg13
g45
sg15
(iequation_tree
Node
p85
(dp86
g6
g12
sg8
Nsg9
Nsg13
g14
sg15
Nsg16
Nsg17
g18
sbsg16
g22
(g26
(I1
I1
I2
I67
S't\x00\x00j\x01\x00|\x00\x00\x83\x01\x00S'
p87
(Ntp88
(g50
g84
tp89
(g12
tp90
S'generate_examples.py'
p91
g32
I17
S''
p92
(t(ttp93
Rp94
c__main__
__dict__
g32
NN(dp95
tp96
Rp97
sg17
g18
sbsg17
S'tanh(x)'
p98
sba(iequation_tree
EquationTree
p99
(dp100
g3
(iequation_tree
Node
p101
(dp102
g6
g12
sg8
Nsg9
Nsg13
g14
sg15
Nsg16
Nsg17
g18
sbsg17
g12
sba(iequation_tree
EquationTree
p103
(dp104
g3
(iequation_tree
Node
p105
(dp106
g6
S'+'
p107
sg8
Nsg9
(iequation_tree
Node
p108
(dp109
g6
g12
sg8
Nsg9
Nsg13
g14
sg15
Nsg16
Nsg17
g18
sbsg13
g19
sg15
(iequation_tree
Node
p110
(dp111
g6
g12
sg8
Nsg9
Nsg13
g14
sg15
Nsg16
Nsg17
g18
sbsg16
g22
(g26
(I2
I2
I2
I67
S'|\x00\x00|\x01\x00\x17S'
p112
(Ntp113
(t(g12
g29
tp114
S'generate_examples.py'
p115
g32
I15
S''
p116
(t(ttp117
Rp118
c__main__
__dict__
g32
NN(dp119
tp120
Rp121
sg17
g18
sbsg17
S'(x)+(x)'
p122
sba.