(lp0
(iequation_tree
EquationTree
p1
(dp2
S'head'
p3
(iequation_tree
Node
p4
(dp5
S'name'
p6
S'*'
p7
sS'val'
p8
NsS'nextL'
p9
(iequation_tree
Node
p10
(dp11
g6
S'x'
p12
sg8
Nsg9
NsS'eq_class'
p13
S'const'
p14
sS'nextR'
p15
NsS'anon_fn'
p16
NsS'string_rep'
p17
S''
p18
sbsg13
S'op'
p19
sg15
(iequation_tree
Node
p20
(dp21
g6
g12
sg8
Nsg9
Nsg13
g14
sg15
Nsg16
Nsg17
g18
sbsg16
cdill.dill
_create_function
p22
(cdill.dill
_load_type
p23
(S'CodeType'
p24
tp25
Rp26
(I2
I2
I2
I67
S'|\x00\x00|\x01\x00\x14S'
p27
(Ntp28
(t(g12
S'y'
p29
tp30
S'generate_examples.py'
p31
S'<lambda>'
p32
I16
S''
p33
(t(ttp34
Rp35
c__main__
__dict__
g32
NN(dp36
tp37
Rp38
sg17
g18
sbsg17
S'(x)*(x)'
p39
sba(iequation_tree
EquationTree
p40
(dp41
g3
(iequation_tree
Node
p42
(dp43
g6
S'sin'
p44
sg8
Nsg9
Nsg13
S'fn'
p45
sg15
(iequation_tree
Node
p46
(dp47
g6
g12
sg8
Nsg9
Nsg13
g14
sg15
Nsg16
Nsg17
g18
sbsg16
g22
(g26
(I1
I1
I2
I67
S't\x00\x00j\x01\x00|\x00\x00\x83\x01\x00S'
p48
(Ntp49
(S'np'
p50
g44
tp51
(g12
tp52
S'generate_examples.py'
p53
g32
I12
S''
p54
(t(ttp55
Rp56
c__main__
__dict__
g32
NN(dp57
tp58
Rp59
sg17
g18
sbsg17
S'sin(x)'
p60
sba(iequation_tree
EquationTree
p61
(dp62
g3
(iequation_tree
Node
p63
(dp64
g6
S'+'
p65
sg8
Nsg9
(iequation_tree
Node
p66
(dp67
g6
g44
sg8
Nsg9
Nsg13
g45
sg15
(iequation_tree
Node
p68
(dp69
g6
g12
sg8
Nsg9
Nsg13
g14
sg15
Nsg16
Nsg17
g18
sbsg16
g59
sg17
g18
sbsg13
g19
sg15
(iequation_tree
Node
p70
(dp71
g6
g44
sg8
Nsg9
Nsg13
g45
sg15
(iequation_tree
Node
p72
(dp73
g6
g12
sg8
Nsg9
Nsg13
g14
sg15
Nsg16
Nsg17
g18
sbsg16
g59
sg17
g18
sbsg16
g22
(g26
(I2
I2
I2
I67
S'|\x00\x00|\x01\x00\x17S'
p74
(Ntp75
(t(g12
g29
tp76
S'generate_examples.py'
p77
g32
I15
S''
p78
(t(ttp79
Rp80
c__main__
__dict__
g32
NN(dp81
tp82
Rp83
sg17
g18
sbsg17
S'(sin(x))+(sin(x))'
p84
sba(iequation_tree
EquationTree
p85
(dp86
g3
(iequation_tree
Node
p87
(dp88
g6
S'tanh'
p89
sg8
Nsg9
Nsg13
g45
sg15
(iequation_tree
Node
p90
(dp91
g6
g65
sg8
Nsg9
(iequation_tree
Node
p92
(dp93
g6
g12
sg8
Nsg9
Nsg13
g14
sg15
Nsg16
Nsg17
g18
sbsg13
g19
sg15
(iequation_tree
Node
p94
(dp95
g6
g12
sg8
Nsg9
Nsg13
g14
sg15
Nsg16
Nsg17
g18
sbsg16
g83
sg17
g18
sbsg16
g22
(g26
(I1
I1
I2
I67
S't\x00\x00j\x01\x00|\x00\x00\x83\x01\x00S'
p96
(Ntp97
(g50
g89
tp98
(g12
tp99
S'generate_examples.py'
p100
g32
I17
S''
p101
(t(ttp102
Rp103
c__main__
__dict__
g32
NN(dp104
tp105
Rp106
sg17
g18
sbsg17
S'tanh((x)+(x))'
p107
sba(iequation_tree
EquationTree
p108
(dp109
g3
(iequation_tree
Node
p110
(dp111
g6
g7
sg8
Nsg9
(iequation_tree
Node
p112
(dp113
g6
g12
sg8
Nsg9
Nsg13
g14
sg15
Nsg16
Nsg17
g18
sbsg13
g19
sg15
(iequation_tree
Node
p114
(dp115
g6
g7
sg8
Nsg9
(iequation_tree
Node
p116
(dp117
g6
g12
sg8
Nsg9
Nsg13
g14
sg15
Nsg16
Nsg17
g18
sbsg13
g19
sg15
(iequation_tree
Node
p118
(dp119
g6
g12
sg8
Nsg9
Nsg13
g14
sg15
Nsg16
Nsg17
g18
sbsg16
g38
sg17
g18
sbsg16
g38
sg17
g18
sbsg17
S'(x)*((x)*(x))'
p120
sba(iequation_tree
EquationTree
p121
(dp122
g3
(iequation_tree
Node
p123
(dp124
g6
g12
sg8
Nsg9
Nsg13
g14
sg15
Nsg16
Nsg17
g18
sbsg17
g12
sba(iequation_tree
EquationTree
p125
(dp126
g3
(iequation_tree
Node
p127
(dp128
g6
g7
sg8
Nsg9
(iequation_tree
Node
p129
(dp130
g6
S'log'
p131
sg8
Nsg9
Nsg13
g45
sg15
(iequation_tree
Node
p132
(dp133
g6
g12
sg8
Nsg9
Nsg13
g14
sg15
Nsg16
Nsg17
g18
sbsg16
g22
(g26
(I1
I1
I3
I67
S't\x00\x00j\x01\x00t\x00\x00j\x02\x00|\x00\x00\x83\x01\x00\x83\x01\x00S'
p134
(Ntp135
(g50
g131
S'abs'
p136
tp137
(g12
tp138
S'generate_examples.py'
p139
g32
I20
S''
p140
(t(ttp141
Rp142
c__main__
__dict__
g32
NN(dp143
tp144
Rp145
sg17
g18
sbsg13
g19
sg15
(iequation_tree
Node
p146
(dp147
g6
g12
sg8
Nsg9
Nsg13
g14
sg15
Nsg16
Nsg17
g18
sbsg16
g38
sg17
g18
sbsg17
S'(log(x))*(x)'
p148
sba(iequation_tree
EquationTree
p149
(dp150
g3
(iequation_tree
Node
p151
(dp152
g6
g7
sg8
Nsg9
(iequation_tree
Node
p153
(dp154
g6
g65
sg8
Nsg9
(iequation_tree
Node
p155
(dp156
g6
g12
sg8
Nsg9
Nsg13
g14
sg15
Nsg16
Nsg17
g18
sbsg13
g19
sg15
(iequation_tree
Node
p157
(dp158
g6
g12
sg8
Nsg9
Nsg13
g14
sg15
Nsg16
Nsg17
g18
sbsg16
g83
sg17
g18
sbsg13
g19
sg15
(iequation_tree
Node
p159
(dp160
g6
S'cos'
p161
sg8
Nsg9
Nsg13
g45
sg15
(iequation_tree
Node
p162
(dp163
g6
g12
sg8
Nsg9
Nsg13
g14
sg15
Nsg16
Nsg17
g18
sbsg16
g22
(g26
(I1
I1
I2
I67
S't\x00\x00j\x01\x00|\x00\x00\x83\x01\x00S'
p164
(Ntp165
(g50
g161
tp166
(g12
tp167
S'generate_examples.py'
p168
g32
I13
S''
p169
(t(ttp170
Rp171
c__main__
__dict__
g32
NN(dp172
tp173
Rp174
sg17
g18
sbsg16
g38
sg17
g18
sbsg17
S'((x)+(x))*(cos(x))'
p175
sba(iequation_tree
EquationTree
p176
(dp177
g3
(iequation_tree
Node
p178
(dp179
g6
g7
sg8
Nsg9
(iequation_tree
Node
p180
(dp181
g6
g65
sg8
Nsg9
(iequation_tree
Node
p182
(dp183
g6
g12
sg8
Nsg9
Nsg13
g14
sg15
Nsg16
Nsg17
g18
sbsg13
g19
sg15
(iequation_tree
Node
p184
(dp185
g6
g12
sg8
Nsg9
Nsg13
g14
sg15
Nsg16
Nsg17
g18
sbsg16
g83
sg17
g18
sbsg13
g19
sg15
(iequation_tree
Node
p186
(dp187
g6
g89
sg8
Nsg9
Nsg13
g45
sg15
(iequation_tree
Node
p188
(dp189
g6
g12
sg8
Nsg9
Nsg13
g14
sg15
Nsg16
Nsg17
g18
sbsg16
g106
sg17
g18
sbsg16
g38
sg17
g18
sbsg17
S'((x)+(x))*(tanh(x))'
p190
sba(iequation_tree
EquationTree
p191
(dp192
g3
(iequation_tree
Node
p193
(dp194
g6
g7
sg8
Nsg9
(iequation_tree
Node
p195
(dp196
g6
g131
sg8
Nsg9
Nsg13
g45
sg15
(iequation_tree
Node
p197
(dp198
g6
g12
sg8
Nsg9
Nsg13
g14
sg15
Nsg16
Nsg17
g18
sbsg16
g145
sg17
g18
sbsg13
g19
sg15
(iequation_tree
Node
p199
(dp200
g6
g89
sg8
Nsg9
Nsg13
g45
sg15
(iequation_tree
Node
p201
(dp202
g6
g12
sg8
Nsg9
Nsg13
g14
sg15
Nsg16
Nsg17
g18
sbsg16
g106
sg17
g18
sbsg16
g38
sg17
g18
sbsg17
S'(log(x))*(tanh(x))'
p203
sba(iequation_tree
EquationTree
p204
(dp205
g3
(iequation_tree
Node
p206
(dp207
g6
g89
sg8
Nsg9
Nsg13
g45
sg15
(iequation_tree
Node
p208
(dp209
g6
g89
sg8
Nsg9
Nsg13
g45
sg15
(iequation_tree
Node
p210
(dp211
g6
g12
sg8
Nsg9
Nsg13
g14
sg15
Nsg16
Nsg17
g18
sbsg16
g106
sg17
g18
sbsg16
g106
sg17
g18
sbsg17
S'tanh(tanh(x))'
p212
sba(iequation_tree
EquationTree
p213
(dp214
g3
(iequation_tree
Node
p215
(dp216
g6
g89
sg8
Nsg9
Nsg13
g45
sg15
(iequation_tree
Node
p217
(dp218
g6
g7
sg8
Nsg9
(iequation_tree
Node
p219
(dp220
g6
g12
sg8
Nsg9
Nsg13
g14
sg15
Nsg16
Nsg17
g18
sbsg13
g19
sg15
(iequation_tree
Node
p221
(dp222
g6
g12
sg8
Nsg9
Nsg13
g14
sg15
Nsg16
Nsg17
g18
sbsg16
g38
sg17
g18
sbsg16
g106
sg17
g18
sbsg17
S'tanh((x)*(x))'
p223
sba(iequation_tree
EquationTree
p224
(dp225
g3
(iequation_tree
Node
p226
(dp227
g6
g161
sg8
Nsg9
Nsg13
g45
sg15
(iequation_tree
Node
p228
(dp229
g6
g12
sg8
Nsg9
Nsg13
g14
sg15
Nsg16
Nsg17
g18
sbsg16
g174
sg17
g18
sbsg17
S'cos(x)'
p230
sba(iequation_tree
EquationTree
p231
(dp232
g3
(iequation_tree
Node
p233
(dp234
g6
g7
sg8
Nsg9
(iequation_tree
Node
p235
(dp236
g6
g12
sg8
Nsg9
Nsg13
g14
sg15
Nsg16
Nsg17
g18
sbsg13
g19
sg15
(iequation_tree
Node
p237
(dp238
g6
g89
sg8
Nsg9
Nsg13
g45
sg15
(iequation_tree
Node
p239
(dp240
g6
g12
sg8
Nsg9
Nsg13
g14
sg15
Nsg16
Nsg17
g18
sbsg16
g106
sg17
g18
sbsg16
g38
sg17
g18
sbsg17
S'(x)*(tanh(x))'
p241
sba(iequation_tree
EquationTree
p242
(dp243
g3
(iequation_tree
Node
p244
(dp245
g6
g7
sg8
Nsg9
(iequation_tree
Node
p246
(dp247
g6
g7
sg8
Nsg9
(iequation_tree
Node
p248
(dp249
g6
g12
sg8
Nsg9
Nsg13
g14
sg15
Nsg16
Nsg17
g18
sbsg13
g19
sg15
(iequation_tree
Node
p250
(dp251
g6
g12
sg8
Nsg9
Nsg13
g14
sg15
Nsg16
Nsg17
g18
sbsg16
g38
sg17
g18
sbsg13
g19
sg15
(iequation_tree
Node
p252
(dp253
g6
g89
sg8
Nsg9
Nsg13
g45
sg15
(iequation_tree
Node
p254
(dp255
g6
g12
sg8
Nsg9
Nsg13
g14
sg15
Nsg16
Nsg17
g18
sbsg16
g106
sg17
g18
sbsg16
g38
sg17
g18
sbsg17
S'((x)*(x))*(tanh(x))'
p256
sba(iequation_tree
EquationTree
p257
(dp258
g3
(iequation_tree
Node
p259
(dp260
g6
g65
sg8
Nsg9
(iequation_tree
Node
p261
(dp262
g6
g89
sg8
Nsg9
Nsg13
g45
sg15
(iequation_tree
Node
p263
(dp264
g6
g12
sg8
Nsg9
Nsg13
g14
sg15
Nsg16
Nsg17
g18
sbsg16
g106
sg17
g18
sbsg13
g19
sg15
(iequation_tree
Node
p265
(dp266
g6
g12
sg8
Nsg9
Nsg13
g14
sg15
Nsg16
Nsg17
g18
sbsg16
g83
sg17
g18
sbsg17
S'(tanh(x))+(x)'
p267
sba(iequation_tree
EquationTree
p268
(dp269
g3
(iequation_tree
Node
p270
(dp271
g6
g89
sg8
Nsg9
Nsg13
g45
sg15
(iequation_tree
Node
p272
(dp273
g6
g161
sg8
Nsg9
Nsg13
g45
sg15
(iequation_tree
Node
p274
(dp275
g6
g12
sg8
Nsg9
Nsg13
g14
sg15
Nsg16
Nsg17
g18
sbsg16
g174
sg17
g18
sbsg16
g106
sg17
g18
sbsg17
S'tanh(cos(x))'
p276
sba(iequation_tree
EquationTree
p277
(dp278
g3
(iequation_tree
Node
p279
(dp280
g6
g7
sg8
Nsg9
(iequation_tree
Node
p281
(dp282
g6
g89
sg8
Nsg9
Nsg13
g45
sg15
(iequation_tree
Node
p283
(dp284
g6
g12
sg8
Nsg9
Nsg13
g14
sg15
Nsg16
Nsg17
g18
sbsg16
g106
sg17
g18
sbsg13
g19
sg15
(iequation_tree
Node
p285
(dp286
g6
g89
sg8
Nsg9
Nsg13
g45
sg15
(iequation_tree
Node
p287
(dp288
g6
g12
sg8
Nsg9
Nsg13
g14
sg15
Nsg16
Nsg17
g18
sbsg16
g106
sg17
g18
sbsg16
g38
sg17
g18
sbsg17
S'(tanh(x))*(tanh(x))'
p289
sba(iequation_tree
EquationTree
p290
(dp291
g3
(iequation_tree
Node
p292
(dp293
g6
g131
sg8
Nsg9
Nsg13
g45
sg15
(iequation_tree
Node
p294
(dp295
g6
g12
sg8
Nsg9
Nsg13
g14
sg15
Nsg16
Nsg17
g18
sbsg16
g145
sg17
g18
sbsg17
S'log(x)'
p296
sba(iequation_tree
EquationTree
p297
(dp298
g3
(iequation_tree
Node
p299
(dp300
g6
g131
sg8
Nsg9
Nsg13
g45
sg15
(iequation_tree
Node
p301
(dp302
g6
g131
sg8
Nsg9
Nsg13
g45
sg15
(iequation_tree
Node
p303
(dp304
g6
g12
sg8
Nsg9
Nsg13
g14
sg15
Nsg16
Nsg17
g18
sbsg16
g145
sg17
g18
sbsg16
g145
sg17
g18
sbsg17
S'log(log(x))'
p305
sba(iequation_tree
EquationTree
p306
(dp307
g3
(iequation_tree
Node
p308
(dp309
g6
g44
sg8
Nsg9
Nsg13
g45
sg15
(iequation_tree
Node
p310
(dp311
g6
g89
sg8
Nsg9
Nsg13
g45
sg15
(iequation_tree
Node
p312
(dp313
g6
g12
sg8
Nsg9
Nsg13
g14
sg15
Nsg16
Nsg17
g18
sbsg16
g106
sg17
g18
sbsg16
g59
sg17
g18
sbsg17
S'sin(tanh(x))'
p314
sba(iequation_tree
EquationTree
p315
(dp316
g3
(iequation_tree
Node
p317
(dp318
g6
g89
sg8
Nsg9
Nsg13
g45
sg15
(iequation_tree
Node
p319
(dp320
g6
g12
sg8
Nsg9
Nsg13
g14
sg15
Nsg16
Nsg17
g18
sbsg16
g106
sg17
g18
sbsg17
S'tanh(x)'
p321
sba(iequation_tree
EquationTree
p322
(dp323
g3
(iequation_tree
Node
p324
(dp325
g6
g65
sg8
Nsg9
(iequation_tree
Node
p326
(dp327
g6
g7
sg8
Nsg9
(iequation_tree
Node
p328
(dp329
g6
g12
sg8
Nsg9
Nsg13
g14
sg15
Nsg16
Nsg17
g18
sbsg13
g19
sg15
(iequation_tree
Node
p330
(dp331
g6
g12
sg8
Nsg9
Nsg13
g14
sg15
Nsg16
Nsg17
g18
sbsg16
g38
sg17
g18
sbsg13
g19
sg15
(iequation_tree
Node
p332
(dp333
g6
g12
sg8
Nsg9
Nsg13
g14
sg15
Nsg16
Nsg17
g18
sbsg16
g83
sg17
g18
sbsg17
S'((x)*(x))+(x)'
p334
sba(iequation_tree
EquationTree
p335
(dp336
g3
(iequation_tree
Node
p337
(dp338
g6
g65
sg8
Nsg9
(iequation_tree
Node
p339
(dp340
g6
g161
sg8
Nsg9
Nsg13
g45
sg15
(iequation_tree
Node
p341
(dp342
g6
g12
sg8
Nsg9
Nsg13
g14
sg15
Nsg16
Nsg17
g18
sbsg16
g174
sg17
g18
sbsg13
g19
sg15
(iequation_tree
Node
p343
(dp344
g6
g65
sg8
Nsg9
(iequation_tree
Node
p345
(dp346
g6
g12
sg8
Nsg9
Nsg13
g14
sg15
Nsg16
Nsg17
g18
sbsg13
g19
sg15
(iequation_tree
Node
p347
(dp348
g6
g12
sg8
Nsg9
Nsg13
g14
sg15
Nsg16
Nsg17
g18
sbsg16
g83
sg17
g18
sbsg16
g83
sg17
g18
sbsg17
S'(cos(x))+((x)+(x))'
p349
sba(iequation_tree
EquationTree
p350
(dp351
g3
(iequation_tree
Node
p352
(dp353
g6
g65
sg8
Nsg9
(iequation_tree
Node
p354
(dp355
g6
g7
sg8
Nsg9
(iequation_tree
Node
p356
(dp357
g6
g12
sg8
Nsg9
Nsg13
g14
sg15
Nsg16
Nsg17
g18
sbsg13
g19
sg15
(iequation_tree
Node
p358
(dp359
g6
g12
sg8
Nsg9
Nsg13
g14
sg15
Nsg16
Nsg17
g18
sbsg16
g38
sg17
g18
sbsg13
g19
sg15
(iequation_tree
Node
p360
(dp361
g6
g131
sg8
Nsg9
Nsg13
g45
sg15
(iequation_tree
Node
p362
(dp363
g6
g12
sg8
Nsg9
Nsg13
g14
sg15
Nsg16
Nsg17
g18
sbsg16
g145
sg17
g18
sbsg16
g83
sg17
g18
sbsg17
S'((x)*(x))+(log(x))'
p364
sba(iequation_tree
EquationTree
p365
(dp366
g3
(iequation_tree
Node
p367
(dp368
g6
g65
sg8
Nsg9
(iequation_tree
Node
p369
(dp370
g6
g12
sg8
Nsg9
Nsg13
g14
sg15
Nsg16
Nsg17
g18
sbsg13
g19
sg15
(iequation_tree
Node
p371
(dp372
g6
g7
sg8
Nsg9
(iequation_tree
Node
p373
(dp374
g6
g12
sg8
Nsg9
Nsg13
g14
sg15
Nsg16
Nsg17
g18
sbsg13
g19
sg15
(iequation_tree
Node
p375
(dp376
g6
g12
sg8
Nsg9
Nsg13
g14
sg15
Nsg16
Nsg17
g18
sbsg16
g38
sg17
g18
sbsg16
g83
sg17
g18
sbsg17
S'(x)+((x)*(x))'
p377
sba(iequation_tree
EquationTree
p378
(dp379
g3
(iequation_tree
Node
p380
(dp381
g6
g161
sg8
Nsg9
Nsg13
g45
sg15
(iequation_tree
Node
p382
(dp383
g6
g131
sg8
Nsg9
Nsg13
g45
sg15
(iequation_tree
Node
p384
(dp385
g6
g12
sg8
Nsg9
Nsg13
g14
sg15
Nsg16
Nsg17
g18
sbsg16
g145
sg17
g18
sbsg16
g174
sg17
g18
sbsg17
S'cos(log(x))'
p386
sba(iequation_tree
EquationTree
p387
(dp388
g3
(iequation_tree
Node
p389
(dp390
g6
g65
sg8
Nsg9
(iequation_tree
Node
p391
(dp392
g6
g44
sg8
Nsg9
Nsg13
g45
sg15
(iequation_tree
Node
p393
(dp394
g6
g12
sg8
Nsg9
Nsg13
g14
sg15
Nsg16
Nsg17
g18
sbsg16
g59
sg17
g18
sbsg13
g19
sg15
(iequation_tree
Node
p395
(dp396
g6
g12
sg8
Nsg9
Nsg13
g14
sg15
Nsg16
Nsg17
g18
sbsg16
g83
sg17
g18
sbsg17
S'(sin(x))+(x)'
p397
sba(iequation_tree
EquationTree
p398
(dp399
g3
(iequation_tree
Node
p400
(dp401
g6
g44
sg8
Nsg9
Nsg13
g45
sg15
(iequation_tree
Node
p402
(dp403
g6
g161
sg8
Nsg9
Nsg13
g45
sg15
(iequation_tree
Node
p404
(dp405
g6
g12
sg8
Nsg9
Nsg13
g14
sg15
Nsg16
Nsg17
g18
sbsg16
g174
sg17
g18
sbsg16
g59
sg17
g18
sbsg17
S'sin(cos(x))'
p406
sba(iequation_tree
EquationTree
p407
(dp408
g3
(iequation_tree
Node
p409
(dp410
g6
g7
sg8
Nsg9
(iequation_tree
Node
p411
(dp412
g6
g161
sg8
Nsg9
Nsg13
g45
sg15
(iequation_tree
Node
p413
(dp414
g6
g12
sg8
Nsg9
Nsg13
g14
sg15
Nsg16
Nsg17
g18
sbsg16
g174
sg17
g18
sbsg13
g19
sg15
(iequation_tree
Node
p415
(dp416
g6
g12
sg8
Nsg9
Nsg13
g14
sg15
Nsg16
Nsg17
g18
sbsg16
g38
sg17
g18
sbsg17
S'(cos(x))*(x)'
p417
sba(iequation_tree
EquationTree
p418
(dp419
g3
(iequation_tree
Node
p420
(dp421
g6
g44
sg8
Nsg9
Nsg13
g45
sg15
(iequation_tree
Node
p422
(dp423
g6
g65
sg8
Nsg9
(iequation_tree
Node
p424
(dp425
g6
g12
sg8
Nsg9
Nsg13
g14
sg15
Nsg16
Nsg17
g18
sbsg13
g19
sg15
(iequation_tree
Node
p426
(dp427
g6
g12
sg8
Nsg9
Nsg13
g14
sg15
Nsg16
Nsg17
g18
sbsg16
g83
sg17
g18
sbsg16
g59
sg17
g18
sbsg17
S'sin((x)+(x))'
p428
sba(iequation_tree
EquationTree
p429
(dp430
g3
(iequation_tree
Node
p431
(dp432
g6
g7
sg8
Nsg9
(iequation_tree
Node
p433
(dp434
g6
g131
sg8
Nsg9
Nsg13
g45
sg15
(iequation_tree
Node
p435
(dp436
g6
g12
sg8
Nsg9
Nsg13
g14
sg15
Nsg16
Nsg17
g18
sbsg16
g145
sg17
g18
sbsg13
g19
sg15
(iequation_tree
Node
p437
(dp438
g6
g7
sg8
Nsg9
(iequation_tree
Node
p439
(dp440
g6
g12
sg8
Nsg9
Nsg13
g14
sg15
Nsg16
Nsg17
g18
sbsg13
g19
sg15
(iequation_tree
Node
p441
(dp442
g6
g12
sg8
Nsg9
Nsg13
g14
sg15
Nsg16
Nsg17
g18
sbsg16
g38
sg17
g18
sbsg16
g38
sg17
g18
sbsg17
S'(log(x))*((x)*(x))'
p443
sba(iequation_tree
EquationTree
p444
(dp445
g3
(iequation_tree
Node
p446
(dp447
g6
g7
sg8
Nsg9
(iequation_tree
Node
p448
(dp449
g6
g89
sg8
Nsg9
Nsg13
g45
sg15
(iequation_tree
Node
p450
(dp451
g6
g12
sg8
Nsg9
Nsg13
g14
sg15
Nsg16
Nsg17
g18
sbsg16
g106
sg17
g18
sbsg13
g19
sg15
(iequation_tree
Node
p452
(dp453
g6
g161
sg8
Nsg9
Nsg13
g45
sg15
(iequation_tree
Node
p454
(dp455
g6
g12
sg8
Nsg9
Nsg13
g14
sg15
Nsg16
Nsg17
g18
sbsg16
g174
sg17
g18
sbsg16
g38
sg17
g18
sbsg17
S'(tanh(x))*(cos(x))'
p456
sba(iequation_tree
EquationTree
p457
(dp458
g3
(iequation_tree
Node
p459
(dp460
g6
g161
sg8
Nsg9
Nsg13
g45
sg15
(iequation_tree
Node
p461
(dp462
g6
g7
sg8
Nsg9
(iequation_tree
Node
p463
(dp464
g6
g12
sg8
Nsg9
Nsg13
g14
sg15
Nsg16
Nsg17
g18
sbsg13
g19
sg15
(iequation_tree
Node
p465
(dp466
g6
g12
sg8
Nsg9
Nsg13
g14
sg15
Nsg16
Nsg17
g18
sbsg16
g38
sg17
g18
sbsg16
g174
sg17
g18
sbsg17
S'cos((x)*(x))'
p467
sba(iequation_tree
EquationTree
p468
(dp469
g3
(iequation_tree
Node
p470
(dp471
g6
g89
sg8
Nsg9
Nsg13
g45
sg15
(iequation_tree
Node
p472
(dp473
g6
g44
sg8
Nsg9
Nsg13
g45
sg15
(iequation_tree
Node
p474
(dp475
g6
g12
sg8
Nsg9
Nsg13
g14
sg15
Nsg16
Nsg17
g18
sbsg16
g59
sg17
g18
sbsg16
g106
sg17
g18
sbsg17
S'tanh(sin(x))'
p476
sba(iequation_tree
EquationTree
p477
(dp478
g3
(iequation_tree
Node
p479
(dp480
g6
g65
sg8
Nsg9
(iequation_tree
Node
p481
(dp482
g6
g12
sg8
Nsg9
Nsg13
g14
sg15
Nsg16
Nsg17
g18
sbsg13
g19
sg15
(iequation_tree
Node
p483
(dp484
g6
g12
sg8
Nsg9
Nsg13
g14
sg15
Nsg16
Nsg17
g18
sbsg16
g83
sg17
g18
sbsg17
S'(x)+(x)'
p485
sba(iequation_tree
EquationTree
p486
(dp487
g3
(iequation_tree
Node
p488
(dp489
g6
g65
sg8
Nsg9
(iequation_tree
Node
p490
(dp491
g6
g12
sg8
Nsg9
Nsg13
g14
sg15
Nsg16
Nsg17
g18
sbsg13
g19
sg15
(iequation_tree
Node
p492
(dp493
g6
g44
sg8
Nsg9
Nsg13
g45
sg15
(iequation_tree
Node
p494
(dp495
g6
g12
sg8
Nsg9
Nsg13
g14
sg15
Nsg16
Nsg17
g18
sbsg16
g59
sg17
g18
sbsg16
g83
sg17
g18
sbsg17
S'(x)+(sin(x))'
p496
sba(iequation_tree
EquationTree
p497
(dp498
g3
(iequation_tree
Node
p499
(dp500
g6
g44
sg8
Nsg9
Nsg13
g45
sg15
(iequation_tree
Node
p501
(dp502
g6
g7
sg8
Nsg9
(iequation_tree
Node
p503
(dp504
g6
g12
sg8
Nsg9
Nsg13
g14
sg15
Nsg16
Nsg17
g18
sbsg13
g19
sg15
(iequation_tree
Node
p505
(dp506
g6
g12
sg8
Nsg9
Nsg13
g14
sg15
Nsg16
Nsg17
g18
sbsg16
g38
sg17
g18
sbsg16
g59
sg17
g18
sbsg17
S'sin((x)*(x))'
p507
sba(iequation_tree
EquationTree
p508
(dp509
g3
(iequation_tree
Node
p510
(dp511
g6
g65
sg8
Nsg9
(iequation_tree
Node
p512
(dp513
g6
g65
sg8
Nsg9
(iequation_tree
Node
p514
(dp515
g6
g12
sg8
Nsg9
Nsg13
g14
sg15
Nsg16
Nsg17
g18
sbsg13
g19
sg15
(iequation_tree
Node
p516
(dp517
g6
g12
sg8
Nsg9
Nsg13
g14
sg15
Nsg16
Nsg17
g18
sbsg16
g83
sg17
g18
sbsg13
g19
sg15
(iequation_tree
Node
p518
(dp519
g6
g7
sg8
Nsg9
(iequation_tree
Node
p520
(dp521
g6
g12
sg8
Nsg9
Nsg13
g14
sg15
Nsg16
Nsg17
g18
sbsg13
g19
sg15
(iequation_tree
Node
p522
(dp523
g6
g12
sg8
Nsg9
Nsg13
g14
sg15
Nsg16
Nsg17
g18
sbsg16
g38
sg17
g18
sbsg16
g83
sg17
g18
sbsg17
S'((x)+(x))+((x)*(x))'
p524
sba(iequation_tree
EquationTree
p525
(dp526
g3
(iequation_tree
Node
p527
(dp528
g6
g65
sg8
Nsg9
(iequation_tree
Node
p529
(dp530
g6
g12
sg8
Nsg9
Nsg13
g14
sg15
Nsg16
Nsg17
g18
sbsg13
g19
sg15
(iequation_tree
Node
p531
(dp532
g6
g65
sg8
Nsg9
(iequation_tree
Node
p533
(dp534
g6
g12
sg8
Nsg9
Nsg13
g14
sg15
Nsg16
Nsg17
g18
sbsg13
g19
sg15
(iequation_tree
Node
p535
(dp536
g6
g12
sg8
Nsg9
Nsg13
g14
sg15
Nsg16
Nsg17
g18
sbsg16
g83
sg17
g18
sbsg16
g83
sg17
g18
sbsg17
S'(x)+((x)+(x))'
p537
sba(iequation_tree
EquationTree
p538
(dp539
g3
(iequation_tree
Node
p540
(dp541
g6
g131
sg8
Nsg9
Nsg13
g45
sg15
(iequation_tree
Node
p542
(dp543
g6
g7
sg8
Nsg9
(iequation_tree
Node
p544
(dp545
g6
g12
sg8
Nsg9
Nsg13
g14
sg15
Nsg16
Nsg17
g18
sbsg13
g19
sg15
(iequation_tree
Node
p546
(dp547
g6
g12
sg8
Nsg9
Nsg13
g14
sg15
Nsg16
Nsg17
g18
sbsg16
g38
sg17
g18
sbsg16
g145
sg17
g18
sbsg17
S'log((x)*(x))'
p548
sba(iequation_tree
EquationTree
p549
(dp550
g3
(iequation_tree
Node
p551
(dp552
g6
g7
sg8
Nsg9
(iequation_tree
Node
p553
(dp554
g6
g65
sg8
Nsg9
(iequation_tree
Node
p555
(dp556
g6
g12
sg8
Nsg9
Nsg13
g14
sg15
Nsg16
Nsg17
g18
sbsg13
g19
sg15
(iequation_tree
Node
p557
(dp558
g6
g12
sg8
Nsg9
Nsg13
g14
sg15
Nsg16
Nsg17
g18
sbsg16
g83
sg17
g18
sbsg13
g19
sg15
(iequation_tree
Node
p559
(dp560
g6
g12
sg8
Nsg9
Nsg13
g14
sg15
Nsg16
Nsg17
g18
sbsg16
g38
sg17
g18
sbsg17
S'((x)+(x))*(x)'
p561
sba(iequation_tree
EquationTree
p562
(dp563
g3
(iequation_tree
Node
p564
(dp565
g6
g7
sg8
Nsg9
(iequation_tree
Node
p566
(dp567
g6
g65
sg8
Nsg9
(iequation_tree
Node
p568
(dp569
g6
g12
sg8
Nsg9
Nsg13
g14
sg15
Nsg16
Nsg17
g18
sbsg13
g19
sg15
(iequation_tree
Node
p570
(dp571
g6
g12
sg8
Nsg9
Nsg13
g14
sg15
Nsg16
Nsg17
g18
sbsg16
g83
sg17
g18
sbsg13
g19
sg15
(iequation_tree
Node
p572
(dp573
g6
g7
sg8
Nsg9
(iequation_tree
Node
p574
(dp575
g6
g12
sg8
Nsg9
Nsg13
g14
sg15
Nsg16
Nsg17
g18
sbsg13
g19
sg15
(iequation_tree
Node
p576
(dp577
g6
g12
sg8
Nsg9
Nsg13
g14
sg15
Nsg16
Nsg17
g18
sbsg16
g38
sg17
g18
sbsg16
g38
sg17
g18
sbsg17
S'((x)+(x))*((x)*(x))'
p578
sba(iequation_tree
EquationTree
p579
(dp580
g3
(iequation_tree
Node
p581
(dp582
g6
g65
sg8
Nsg9
(iequation_tree
Node
p583
(dp584
g6
g12
sg8
Nsg9
Nsg13
g14
sg15
Nsg16
Nsg17
g18
sbsg13
g19
sg15
(iequation_tree
Node
p585
(dp586
g6
g161
sg8
Nsg9
Nsg13
g45
sg15
(iequation_tree
Node
p587
(dp588
g6
g12
sg8
Nsg9
Nsg13
g14
sg15
Nsg16
Nsg17
g18
sbsg16
g174
sg17
g18
sbsg16
g83
sg17
g18
sbsg17
S'(x)+(cos(x))'
p589
sba(iequation_tree
EquationTree
p590
(dp591
g3
(iequation_tree
Node
p592
(dp593
g6
g7
sg8
Nsg9
(iequation_tree
Node
p594
(dp595
g6
g7
sg8
Nsg9
(iequation_tree
Node
p596
(dp597
g6
g12
sg8
Nsg9
Nsg13
g14
sg15
Nsg16
Nsg17
g18
sbsg13
g19
sg15
(iequation_tree
Node
p598
(dp599
g6
g12
sg8
Nsg9
Nsg13
g14
sg15
Nsg16
Nsg17
g18
sbsg16
g38
sg17
g18
sbsg13
g19
sg15
(iequation_tree
Node
p600
(dp601
g6
g12
sg8
Nsg9
Nsg13
g14
sg15
Nsg16
Nsg17
g18
sbsg16
g38
sg17
g18
sbsg17
S'((x)*(x))*(x)'
p602
sba(iequation_tree
EquationTree
p603
(dp604
g3
(iequation_tree
Node
p605
(dp606
g6
g65
sg8
Nsg9
(iequation_tree
Node
p607
(dp608
g6
g65
sg8
Nsg9
(iequation_tree
Node
p609
(dp610
g6
g12
sg8
Nsg9
Nsg13
g14
sg15
Nsg16
Nsg17
g18
sbsg13
g19
sg15
(iequation_tree
Node
p611
(dp612
g6
g12
sg8
Nsg9
Nsg13
g14
sg15
Nsg16
Nsg17
g18
sbsg16
g83
sg17
g18
sbsg13
g19
sg15
(iequation_tree
Node
p613
(dp614
g6
g44
sg8
Nsg9
Nsg13
g45
sg15
(iequation_tree
Node
p615
(dp616
g6
g12
sg8
Nsg9
Nsg13
g14
sg15
Nsg16
Nsg17
g18
sbsg16
g59
sg17
g18
sbsg16
g83
sg17
g18
sbsg17
S'((x)+(x))+(sin(x))'
p617
sba(iequation_tree
EquationTree
p618
(dp619
g3
(iequation_tree
Node
p620
(dp621
g6
g65
sg8
Nsg9
(iequation_tree
Node
p622
(dp623
g6
g161
sg8
Nsg9
Nsg13
g45
sg15
(iequation_tree
Node
p624
(dp625
g6
g12
sg8
Nsg9
Nsg13
g14
sg15
Nsg16
Nsg17
g18
sbsg16
g174
sg17
g18
sbsg13
g19
sg15
(iequation_tree
Node
p626
(dp627
g6
g161
sg8
Nsg9
Nsg13
g45
sg15
(iequation_tree
Node
p628
(dp629
g6
g12
sg8
Nsg9
Nsg13
g14
sg15
Nsg16
Nsg17
g18
sbsg16
g174
sg17
g18
sbsg16
g83
sg17
g18
sbsg17
S'(cos(x))+(cos(x))'
p630
sba(iequation_tree
EquationTree
p631
(dp632
g3
(iequation_tree
Node
p633
(dp634
g6
g7
sg8
Nsg9
(iequation_tree
Node
p635
(dp636
g6
g89
sg8
Nsg9
Nsg13
g45
sg15
(iequation_tree
Node
p637
(dp638
g6
g12
sg8
Nsg9
Nsg13
g14
sg15
Nsg16
Nsg17
g18
sbsg16
g106
sg17
g18
sbsg13
g19
sg15
(iequation_tree
Node
p639
(dp640
g6
g12
sg8
Nsg9
Nsg13
g14
sg15
Nsg16
Nsg17
g18
sbsg16
g38
sg17
g18
sbsg17
S'(tanh(x))*(x)'
p641
sba(iequation_tree
EquationTree
p642
(dp643
g3
(iequation_tree
Node
p644
(dp645
g6
g7
sg8
Nsg9
(iequation_tree
Node
p646
(dp647
g6
g131
sg8
Nsg9
Nsg13
g45
sg15
(iequation_tree
Node
p648
(dp649
g6
g12
sg8
Nsg9
Nsg13
g14
sg15
Nsg16
Nsg17
g18
sbsg16
g145
sg17
g18
sbsg13
g19
sg15
(iequation_tree
Node
p650
(dp651
g6
g131
sg8
Nsg9
Nsg13
g45
sg15
(iequation_tree
Node
p652
(dp653
g6
g12
sg8
Nsg9
Nsg13
g14
sg15
Nsg16
Nsg17
g18
sbsg16
g145
sg17
g18
sbsg16
g38
sg17
g18
sbsg17
S'(log(x))*(log(x))'
p654
sba(iequation_tree
EquationTree
p655
(dp656
g3
(iequation_tree
Node
p657
(dp658
g6
g131
sg8
Nsg9
Nsg13
g45
sg15
(iequation_tree
Node
p659
(dp660
g6
g44
sg8
Nsg9
Nsg13
g45
sg15
(iequation_tree
Node
p661
(dp662
g6
g12
sg8
Nsg9
Nsg13
g14
sg15
Nsg16
Nsg17
g18
sbsg16
g59
sg17
g18
sbsg16
g145
sg17
g18
sbsg17
S'log(sin(x))'
p663
sba(iequation_tree
EquationTree
p664
(dp665
g3
(iequation_tree
Node
p666
(dp667
g6
g7
sg8
Nsg9
(iequation_tree
Node
p668
(dp669
g6
g65
sg8
Nsg9
(iequation_tree
Node
p670
(dp671
g6
g12
sg8
Nsg9
Nsg13
g14
sg15
Nsg16
Nsg17
g18
sbsg13
g19
sg15
(iequation_tree
Node
p672
(dp673
g6
g12
sg8
Nsg9
Nsg13
g14
sg15
Nsg16
Nsg17
g18
sbsg16
g83
sg17
g18
sbsg13
g19
sg15
(iequation_tree
Node
p674
(dp675
g6
g44
sg8
Nsg9
Nsg13
g45
sg15
(iequation_tree
Node
p676
(dp677
g6
g12
sg8
Nsg9
Nsg13
g14
sg15
Nsg16
Nsg17
g18
sbsg16
g59
sg17
g18
sbsg16
g38
sg17
g18
sbsg17
S'((x)+(x))*(sin(x))'
p678
sba(iequation_tree
EquationTree
p679
(dp680
g3
(iequation_tree
Node
p681
(dp682
g6
g7
sg8
Nsg9
(iequation_tree
Node
p683
(dp684
g6
g12
sg8
Nsg9
Nsg13
g14
sg15
Nsg16
Nsg17
g18
sbsg13
g19
sg15
(iequation_tree
Node
p685
(dp686
g6
g44
sg8
Nsg9
Nsg13
g45
sg15
(iequation_tree
Node
p687
(dp688
g6
g12
sg8
Nsg9
Nsg13
g14
sg15
Nsg16
Nsg17
g18
sbsg16
g59
sg17
g18
sbsg16
g38
sg17
g18
sbsg17
S'(x)*(sin(x))'
p689
sba(iequation_tree
EquationTree
p690
(dp691
g3
(iequation_tree
Node
p692
(dp693
g6
g65
sg8
Nsg9
(iequation_tree
Node
p694
(dp695
g6
g44
sg8
Nsg9
Nsg13
g45
sg15
(iequation_tree
Node
p696
(dp697
g6
g12
sg8
Nsg9
Nsg13
g14
sg15
Nsg16
Nsg17
g18
sbsg16
g59
sg17
g18
sbsg13
g19
sg15
(iequation_tree
Node
p698
(dp699
g6
g89
sg8
Nsg9
Nsg13
g45
sg15
(iequation_tree
Node
p700
(dp701
g6
g12
sg8
Nsg9
Nsg13
g14
sg15
Nsg16
Nsg17
g18
sbsg16
g106
sg17
g18
sbsg16
g83
sg17
g18
sbsg17
S'(sin(x))+(tanh(x))'
p702
sba(iequation_tree
EquationTree
p703
(dp704
g3
(iequation_tree
Node
p705
(dp706
g6
g7
sg8
Nsg9
(iequation_tree
Node
p707
(dp708
g6
g12
sg8
Nsg9
Nsg13
g14
sg15
Nsg16
Nsg17
g18
sbsg13
g19
sg15
(iequation_tree
Node
p709
(dp710
g6
g131
sg8
Nsg9
Nsg13
g45
sg15
(iequation_tree
Node
p711
(dp712
g6
g12
sg8
Nsg9
Nsg13
g14
sg15
Nsg16
Nsg17
g18
sbsg16
g145
sg17
g18
sbsg16
g38
sg17
g18
sbsg17
S'(x)*(log(x))'
p713
sba(iequation_tree
EquationTree
p714
(dp715
g3
(iequation_tree
Node
p716
(dp717
g6
g65
sg8
Nsg9
(iequation_tree
Node
p718
(dp719
g6
g7
sg8
Nsg9
(iequation_tree
Node
p720
(dp721
g6
g12
sg8
Nsg9
Nsg13
g14
sg15
Nsg16
Nsg17
g18
sbsg13
g19
sg15
(iequation_tree
Node
p722
(dp723
g6
g12
sg8
Nsg9
Nsg13
g14
sg15
Nsg16
Nsg17
g18
sbsg16
g38
sg17
g18
sbsg13
g19
sg15
(iequation_tree
Node
p724
(dp725
g6
g65
sg8
Nsg9
(iequation_tree
Node
p726
(dp727
g6
g12
sg8
Nsg9
Nsg13
g14
sg15
Nsg16
Nsg17
g18
sbsg13
g19
sg15
(iequation_tree
Node
p728
(dp729
g6
g12
sg8
Nsg9
Nsg13
g14
sg15
Nsg16
Nsg17
g18
sbsg16
g83
sg17
g18
sbsg16
g83
sg17
g18
sbsg17
S'((x)*(x))+((x)+(x))'
p730
sba(iequation_tree
EquationTree
p731
(dp732
g3
(iequation_tree
Node
p733
(dp734
g6
g65
sg8
Nsg9
(iequation_tree
Node
p735
(dp736
g6
g7
sg8
Nsg9
(iequation_tree
Node
p737
(dp738
g6
g12
sg8
Nsg9
Nsg13
g14
sg15
Nsg16
Nsg17
g18
sbsg13
g19
sg15
(iequation_tree
Node
p739
(dp740
g6
g12
sg8
Nsg9
Nsg13
g14
sg15
Nsg16
Nsg17
g18
sbsg16
g38
sg17
g18
sbsg13
g19
sg15
(iequation_tree
Node
p741
(dp742
g6
g7
sg8
Nsg9
(iequation_tree
Node
p743
(dp744
g6
g12
sg8
Nsg9
Nsg13
g14
sg15
Nsg16
Nsg17
g18
sbsg13
g19
sg15
(iequation_tree
Node
p745
(dp746
g6
g12
sg8
Nsg9
Nsg13
g14
sg15
Nsg16
Nsg17
g18
sbsg16
g38
sg17
g18
sbsg16
g83
sg17
g18
sbsg17
S'((x)*(x))+((x)*(x))'
p747
sba(iequation_tree
EquationTree
p748
(dp749
g3
(iequation_tree
Node
p750
(dp751
g6
g65
sg8
Nsg9
(iequation_tree
Node
p752
(dp753
g6
g12
sg8
Nsg9
Nsg13
g14
sg15
Nsg16
Nsg17
g18
sbsg13
g19
sg15
(iequation_tree
Node
p754
(dp755
g6
g131
sg8
Nsg9
Nsg13
g45
sg15
(iequation_tree
Node
p756
(dp757
g6
g12
sg8
Nsg9
Nsg13
g14
sg15
Nsg16
Nsg17
g18
sbsg16
g145
sg17
g18
sbsg16
g83
sg17
g18
sbsg17
S'(x)+(log(x))'
p758
sba(iequation_tree
EquationTree
p759
(dp760
g3
(iequation_tree
Node
p761
(dp762
g6
g65
sg8
Nsg9
(iequation_tree
Node
p763
(dp764
g6
g131
sg8
Nsg9
Nsg13
g45
sg15
(iequation_tree
Node
p765
(dp766
g6
g12
sg8
Nsg9
Nsg13
g14
sg15
Nsg16
Nsg17
g18
sbsg16
g145
sg17
g18
sbsg13
g19
sg15
(iequation_tree
Node
p767
(dp768
g6
g65
sg8
Nsg9
(iequation_tree
Node
p769
(dp770
g6
g12
sg8
Nsg9
Nsg13
g14
sg15
Nsg16
Nsg17
g18
sbsg13
g19
sg15
(iequation_tree
Node
p771
(dp772
g6
g12
sg8
Nsg9
Nsg13
g14
sg15
Nsg16
Nsg17
g18
sbsg16
g83
sg17
g18
sbsg16
g83
sg17
g18
sbsg17
S'(log(x))+((x)+(x))'
p773
sba(iequation_tree
EquationTree
p774
(dp775
g3
(iequation_tree
Node
p776
(dp777
g6
g7
sg8
Nsg9
(iequation_tree
Node
p778
(dp779
g6
g12
sg8
Nsg9
Nsg13
g14
sg15
Nsg16
Nsg17
g18
sbsg13
g19
sg15
(iequation_tree
Node
p780
(dp781
g6
g65
sg8
Nsg9
(iequation_tree
Node
p782
(dp783
g6
g12
sg8
Nsg9
Nsg13
g14
sg15
Nsg16
Nsg17
g18
sbsg13
g19
sg15
(iequation_tree
Node
p784
(dp785
g6
g12
sg8
Nsg9
Nsg13
g14
sg15
Nsg16
Nsg17
g18
sbsg16
g83
sg17
g18
sbsg16
g38
sg17
g18
sbsg17
S'(x)*((x)+(x))'
p786
sba(iequation_tree
EquationTree
p787
(dp788
g3
(iequation_tree
Node
p789
(dp790
g6
g65
sg8
Nsg9
(iequation_tree
Node
p791
(dp792
g6
g65
sg8
Nsg9
(iequation_tree
Node
p793
(dp794
g6
g12
sg8
Nsg9
Nsg13
g14
sg15
Nsg16
Nsg17
g18
sbsg13
g19
sg15
(iequation_tree
Node
p795
(dp796
g6
g12
sg8
Nsg9
Nsg13
g14
sg15
Nsg16
Nsg17
g18
sbsg16
g83
sg17
g18
sbsg13
g19
sg15
(iequation_tree
Node
p797
(dp798
g6
g161
sg8
Nsg9
Nsg13
g45
sg15
(iequation_tree
Node
p799
(dp800
g6
g12
sg8
Nsg9
Nsg13
g14
sg15
Nsg16
Nsg17
g18
sbsg16
g174
sg17
g18
sbsg16
g83
sg17
g18
sbsg17
S'((x)+(x))+(cos(x))'
p801
sba(iequation_tree
EquationTree
p802
(dp803
g3
(iequation_tree
Node
p804
(dp805
g6
g7
sg8
Nsg9
(iequation_tree
Node
p806
(dp807
g6
g161
sg8
Nsg9
Nsg13
g45
sg15
(iequation_tree
Node
p808
(dp809
g6
g12
sg8
Nsg9
Nsg13
g14
sg15
Nsg16
Nsg17
g18
sbsg16
g174
sg17
g18
sbsg13
g19
sg15
(iequation_tree
Node
p810
(dp811
g6
g131
sg8
Nsg9
Nsg13
g45
sg15
(iequation_tree
Node
p812
(dp813
g6
g12
sg8
Nsg9
Nsg13
g14
sg15
Nsg16
Nsg17
g18
sbsg16
g145
sg17
g18
sbsg16
g38
sg17
g18
sbsg17
S'(cos(x))*(log(x))'
p814
sba(iequation_tree
EquationTree
p815
(dp816
g3
(iequation_tree
Node
p817
(dp818
g6
g65
sg8
Nsg9
(iequation_tree
Node
p819
(dp820
g6
g44
sg8
Nsg9
Nsg13
g45
sg15
(iequation_tree
Node
p821
(dp822
g6
g12
sg8
Nsg9
Nsg13
g14
sg15
Nsg16
Nsg17
g18
sbsg16
g59
sg17
g18
sbsg13
g19
sg15
(iequation_tree
Node
p823
(dp824
g6
g7
sg8
Nsg9
(iequation_tree
Node
p825
(dp826
g6
g12
sg8
Nsg9
Nsg13
g14
sg15
Nsg16
Nsg17
g18
sbsg13
g19
sg15
(iequation_tree
Node
p827
(dp828
g6
g12
sg8
Nsg9
Nsg13
g14
sg15
Nsg16
Nsg17
g18
sbsg16
g38
sg17
g18
sbsg16
g83
sg17
g18
sbsg17
S'(sin(x))+((x)*(x))'
p829
sba(iequation_tree
EquationTree
p830
(dp831
g3
(iequation_tree
Node
p832
(dp833
g6
g65
sg8
Nsg9
(iequation_tree
Node
p834
(dp835
g6
g89
sg8
Nsg9
Nsg13
g45
sg15
(iequation_tree
Node
p836
(dp837
g6
g12
sg8
Nsg9
Nsg13
g14
sg15
Nsg16
Nsg17
g18
sbsg16
g106
sg17
g18
sbsg13
g19
sg15
(iequation_tree
Node
p838
(dp839
g6
g65
sg8
Nsg9
(iequation_tree
Node
p840
(dp841
g6
g12
sg8
Nsg9
Nsg13
g14
sg15
Nsg16
Nsg17
g18
sbsg13
g19
sg15
(iequation_tree
Node
p842
(dp843
g6
g12
sg8
Nsg9
Nsg13
g14
sg15
Nsg16
Nsg17
g18
sbsg16
g83
sg17
g18
sbsg16
g83
sg17
g18
sbsg17
S'(tanh(x))+((x)+(x))'
p844
sba(iequation_tree
EquationTree
p845
(dp846
g3
(iequation_tree
Node
p847
(dp848
g6
g7
sg8
Nsg9
(iequation_tree
Node
p849
(dp850
g6
g44
sg8
Nsg9
Nsg13
g45
sg15
(iequation_tree
Node
p851
(dp852
g6
g12
sg8
Nsg9
Nsg13
g14
sg15
Nsg16
Nsg17
g18
sbsg16
g59
sg17
g18
sbsg13
g19
sg15
(iequation_tree
Node
p853
(dp854
g6
g65
sg8
Nsg9
(iequation_tree
Node
p855
(dp856
g6
g12
sg8
Nsg9
Nsg13
g14
sg15
Nsg16
Nsg17
g18
sbsg13
g19
sg15
(iequation_tree
Node
p857
(dp858
g6
g12
sg8
Nsg9
Nsg13
g14
sg15
Nsg16
Nsg17
g18
sbsg16
g83
sg17
g18
sbsg16
g38
sg17
g18
sbsg17
S'(sin(x))*((x)+(x))'
p859
sba.