(lp0
(iequation_tree
EquationTree
p1
(dp2
S'head'
p3
(iequation_tree
Node
p4
(dp5
S'name'
p6
S'*'
p7
sS'val'
p8
NsS'nextL'
p9
(iequation_tree
Node
p10
(dp11
g6
S'x'
p12
sg8
Nsg9
NsS'eq_class'
p13
S'const'
p14
sS'nextR'
p15
NsS'anon_fn'
p16
NsS'string_rep'
p17
S''
p18
sbsg13
S'op'
p19
sg15
(iequation_tree
Node
p20
(dp21
g6
g12
sg8
Nsg9
Nsg13
g14
sg15
Nsg16
Nsg17
g18
sbsg16
cdill.dill
_create_function
p22
(cdill.dill
_load_type
p23
(S'CodeType'
p24
tp25
Rp26
(I2
I2
I2
I67
S'|\x00\x00|\x01\x00\x14S'
p27
(Ntp28
(t(g12
S'y'
p29
tp30
S'generate_examples.py'
p31
S'<lambda>'
p32
I15
S''
p33
(t(ttp34
Rp35
c__main__
__dict__
g32
NN(dp36
tp37
Rp38
sg17
g18
sbsg17
S'(x)*(x)'
p39
sba(iequation_tree
EquationTree
p40
(dp41
g3
(iequation_tree
Node
p42
(dp43
g6
g12
sg8
Nsg9
Nsg13
g14
sg15
Nsg16
Nsg17
g18
sbsg17
g12
sba(iequation_tree
EquationTree
p44
(dp45
g3
(iequation_tree
Node
p46
(dp47
g6
S'cosh'
p48
sg8
Nsg9
Nsg13
S'fn'
p49
sg15
(iequation_tree
Node
p50
(dp51
g6
g12
sg8
Nsg9
Nsg13
g14
sg15
Nsg16
Nsg17
g18
sbsg16
g22
(g26
(I1
I1
I2
I67
S't\x00\x00j\x01\x00|\x00\x00\x83\x01\x00S'
p52
(Ntp53
(S'np'
p54
g48
tp55
(g12
tp56
S'generate_examples.py'
p57
g32
I21
S''
p58
(t(ttp59
Rp60
c__main__
__dict__
g32
NN(dp61
tp62
Rp63
sg17
g18
sbsg17
S'cosh(x)'
p64
sba(iequation_tree
EquationTree
p65
(dp66
g3
(iequation_tree
Node
p67
(dp68
g6
S'tanh'
p69
sg8
Nsg9
Nsg13
g49
sg15
(iequation_tree
Node
p70
(dp71
g6
g12
sg8
Nsg9
Nsg13
g14
sg15
Nsg16
Nsg17
g18
sbsg16
g22
(g26
(I1
I1
I2
I67
S't\x00\x00j\x01\x00|\x00\x00\x83\x01\x00S'
p72
(Ntp73
(g54
g69
tp74
(g12
tp75
S'generate_examples.py'
p76
g32
I16
S''
p77
(t(ttp78
Rp79
c__main__
__dict__
g32
NN(dp80
tp81
Rp82
sg17
g18
sbsg17
S'tanh(x)'
p83
sba(iequation_tree
EquationTree
p84
(dp85
g3
(iequation_tree
Node
p86
(dp87
g6
S'exp'
p88
sg8
Nsg9
Nsg13
g49
sg15
(iequation_tree
Node
p89
(dp90
g6
g12
sg8
Nsg9
Nsg13
g14
sg15
Nsg16
Nsg17
g18
sbsg16
g22
(g26
(I1
I1
I2
I67
S't\x00\x00j\x01\x00|\x00\x00\x83\x01\x00S'
p91
(Ntp92
(g54
g88
tp93
(g12
tp94
S'generate_examples.py'
p95
g32
I19
S''
p96
(t(ttp97
Rp98
c__main__
__dict__
g32
NN(dp99
tp100
Rp101
sg17
g18
sbsg17
S'exp(x)'
p102
sba(iequation_tree
EquationTree
p103
(dp104
g3
(iequation_tree
Node
p105
(dp106
g6
S'+'
p107
sg8
Nsg9
(iequation_tree
Node
p108
(dp109
g6
g12
sg8
Nsg9
Nsg13
g14
sg15
Nsg16
Nsg17
g18
sbsg13
g19
sg15
(iequation_tree
Node
p110
(dp111
g6
g12
sg8
Nsg9
Nsg13
g14
sg15
Nsg16
Nsg17
g18
sbsg16
g22
(g26
(I2
I2
I2
I67
S'|\x00\x00|\x01\x00\x17S'
p112
(Ntp113
(t(g12
g29
tp114
S'generate_examples.py'
p115
g32
I14
S''
p116
(t(ttp117
Rp118
c__main__
__dict__
g32
NN(dp119
tp120
Rp121
sg17
g18
sbsg17
S'(x)+(x)'
p122
sba(iequation_tree
EquationTree
p123
(dp124
g3
(iequation_tree
Node
p125
(dp126
g6
S'sin'
p127
sg8
Nsg9
Nsg13
g49
sg15
(iequation_tree
Node
p128
(dp129
g6
g12
sg8
Nsg9
Nsg13
g14
sg15
Nsg16
Nsg17
g18
sbsg16
g22
(g26
(I1
I1
I2
I67
S't\x00\x00j\x01\x00|\x00\x00\x83\x01\x00S'
p130
(Ntp131
(g54
g127
tp132
(g12
tp133
S'generate_examples.py'
p134
g32
I12
S''
p135
(t(ttp136
Rp137
c__main__
__dict__
g32
NN(dp138
tp139
Rp140
sg17
g18
sbsg17
S'sin(x)'
p141
sba(iequation_tree
EquationTree
p142
(dp143
g3
(iequation_tree
Node
p144
(dp145
g6
S'log'
p146
sg8
Nsg9
Nsg13
g49
sg15
(iequation_tree
Node
p147
(dp148
g6
g12
sg8
Nsg9
Nsg13
g14
sg15
Nsg16
Nsg17
g18
sbsg16
g22
(g26
(I1
I1
I3
I67
S't\x00\x00j\x01\x00t\x00\x00j\x02\x00|\x00\x00\x83\x01\x00\x83\x01\x00S'
p149
(Ntp150
(g54
g146
S'abs'
p151
tp152
(g12
tp153
S'generate_examples.py'
p154
g32
I20
S''
p155
(t(ttp156
Rp157
c__main__
__dict__
g32
NN(dp158
tp159
Rp160
sg17
g18
sbsg17
S'log(x)'
p161
sba(iequation_tree
EquationTree
p162
(dp163
g3
(iequation_tree
Node
p164
(dp165
g6
S'sinh'
p166
sg8
Nsg9
Nsg13
g49
sg15
(iequation_tree
Node
p167
(dp168
g6
g12
sg8
Nsg9
Nsg13
g14
sg15
Nsg16
Nsg17
g18
sbsg16
g22
(g26
(I1
I1
I2
I67
S't\x00\x00j\x01\x00|\x00\x00\x83\x01\x00S'
p169
(Ntp170
(g54
g166
tp171
(g12
tp172
S'generate_examples.py'
p173
g32
I22
S''
p174
(t(ttp175
Rp176
c__main__
__dict__
g32
NN(dp177
tp178
Rp179
sg17
g18
sbsg17
S'sinh(x)'
p180
sba.