(lp0
(iequation_tree
EquationTree
p1
(dp2
S'head'
p3
(iequation_tree
Node
p4
(dp5
S'name'
p6
S'+'
p7
sS'val'
p8
NsS'nextL'
p9
(iequation_tree
Node
p10
(dp11
g6
S'x'
p12
sg8
Nsg9
NsS'eq_class'
p13
S'const'
p14
sS'nextR'
p15
NsS'anon_fn'
p16
NsS'string_rep'
p17
S''
p18
sbsg13
S'op'
p19
sg15
(iequation_tree
Node
p20
(dp21
g6
S'sin'
p22
sg8
Nsg9
Nsg13
S'fn'
p23
sg15
(iequation_tree
Node
p24
(dp25
g6
g12
sg8
Nsg9
Nsg13
g14
sg15
Nsg16
Nsg17
g18
sbsg16
cdill.dill
_create_function
p26
(cdill.dill
_load_type
p27
(S'CodeType'
p28
tp29
Rp30
(I1
I1
I2
I67
S't\x00\x00j\x01\x00|\x00\x00\x83\x01\x00S'
p31
(Ntp32
(S'np'
p33
g22
tp34
(g12
tp35
S'generate_examples.py'
p36
S'<lambda>'
p37
I12
S''
p38
(t(ttp39
Rp40
c__main__
__dict__
g37
NN(dp41
tp42
Rp43
sg17
g18
sbsg16
g26
(g30
(I2
I2
I2
I67
S'|\x00\x00|\x01\x00\x17S'
p44
(Ntp45
(t(g12
S'y'
p46
tp47
S'generate_examples.py'
p48
g37
I14
S''
p49
(t(ttp50
Rp51
c__main__
__dict__
g37
NN(dp52
tp53
Rp54
sg17
g18
sbsg17
S'(x)+(sin(x))'
p55
sba(iequation_tree
EquationTree
p56
(dp57
g3
(iequation_tree
Node
p58
(dp59
g6
S'tanh'
p60
sg8
Nsg9
Nsg13
g23
sg15
(iequation_tree
Node
p61
(dp62
g6
g12
sg8
Nsg9
Nsg13
g14
sg15
Nsg16
Nsg17
g18
sbsg16
g26
(g30
(I1
I1
I2
I67
S't\x00\x00j\x01\x00|\x00\x00\x83\x01\x00S'
p63
(Ntp64
(g33
g60
tp65
(g12
tp66
S'generate_examples.py'
p67
g37
I16
S''
p68
(t(ttp69
Rp70
c__main__
__dict__
g37
NN(dp71
tp72
Rp73
sg17
g18
sbsg17
S'tanh(x)'
p74
sba(iequation_tree
EquationTree
p75
(dp76
g3
(iequation_tree
Node
p77
(dp78
g6
g7
sg8
Nsg9
(iequation_tree
Node
p79
(dp80
g6
g12
sg8
Nsg9
Nsg13
g14
sg15
Nsg16
Nsg17
g18
sbsg13
g19
sg15
(iequation_tree
Node
p81
(dp82
g6
g60
sg8
Nsg9
Nsg13
g23
sg15
(iequation_tree
Node
p83
(dp84
g6
g12
sg8
Nsg9
Nsg13
g14
sg15
Nsg16
Nsg17
g18
sbsg16
g73
sg17
g18
sbsg16
g54
sg17
g18
sbsg17
S'(x)+(tanh(x))'
p85
sba(iequation_tree
EquationTree
p86
(dp87
g3
(iequation_tree
Node
p88
(dp89
g6
g7
sg8
Nsg9
(iequation_tree
Node
p90
(dp91
g6
g22
sg8
Nsg9
Nsg13
g23
sg15
(iequation_tree
Node
p92
(dp93
g6
g12
sg8
Nsg9
Nsg13
g14
sg15
Nsg16
Nsg17
g18
sbsg16
g43
sg17
g18
sbsg13
g19
sg15
(iequation_tree
Node
p94
(dp95
g6
g7
sg8
Nsg9
(iequation_tree
Node
p96
(dp97
g6
g12
sg8
Nsg9
Nsg13
g14
sg15
Nsg16
Nsg17
g18
sbsg13
g19
sg15
(iequation_tree
Node
p98
(dp99
g6
g12
sg8
Nsg9
Nsg13
g14
sg15
Nsg16
Nsg17
g18
sbsg16
g54
sg17
g18
sbsg16
g54
sg17
g18
sbsg17
S'(sin(x))+((x)+(x))'
p100
sba(iequation_tree
EquationTree
p101
(dp102
g3
(iequation_tree
Node
p103
(dp104
g6
g12
sg8
Nsg9
Nsg13
g14
sg15
Nsg16
Nsg17
g18
sbsg17
g12
sba(iequation_tree
EquationTree
p105
(dp106
g3
(iequation_tree
Node
p107
(dp108
g6
g7
sg8
Nsg9
(iequation_tree
Node
p109
(dp110
g6
g7
sg8
Nsg9
(iequation_tree
Node
p111
(dp112
g6
g12
sg8
Nsg9
Nsg13
g14
sg15
Nsg16
Nsg17
g18
sbsg13
g19
sg15
(iequation_tree
Node
p113
(dp114
g6
g12
sg8
Nsg9
Nsg13
g14
sg15
Nsg16
Nsg17
g18
sbsg16
g54
sg17
g18
sbsg13
g19
sg15
(iequation_tree
Node
p115
(dp116
g6
g12
sg8
Nsg9
Nsg13
g14
sg15
Nsg16
Nsg17
g18
sbsg16
g54
sg17
g18
sbsg17
S'((x)+(x))+(x)'
p117
sba(iequation_tree
EquationTree
p118
(dp119
g3
(iequation_tree
Node
p120
(dp121
g6
g7
sg8
Nsg9
(iequation_tree
Node
p122
(dp123
g6
g22
sg8
Nsg9
Nsg13
g23
sg15
(iequation_tree
Node
p124
(dp125
g6
g12
sg8
Nsg9
Nsg13
g14
sg15
Nsg16
Nsg17
g18
sbsg16
g43
sg17
g18
sbsg13
g19
sg15
(iequation_tree
Node
p126
(dp127
g6
g12
sg8
Nsg9
Nsg13
g14
sg15
Nsg16
Nsg17
g18
sbsg16
g54
sg17
g18
sbsg17
S'(sin(x))+(x)'
p128
sba(iequation_tree
EquationTree
p129
(dp130
g3
(iequation_tree
Node
p131
(dp132
g6
S'cosh'
p133
sg8
Nsg9
Nsg13
g23
sg15
(iequation_tree
Node
p134
(dp135
g6
g22
sg8
Nsg9
Nsg13
g23
sg15
(iequation_tree
Node
p136
(dp137
g6
g12
sg8
Nsg9
Nsg13
g14
sg15
Nsg16
Nsg17
g18
sbsg16
g43
sg17
g18
sbsg16
g26
(g30
(I1
I1
I2
I67
S't\x00\x00j\x01\x00|\x00\x00\x83\x01\x00S'
p138
(Ntp139
(g33
g133
tp140
(g12
tp141
S'generate_examples.py'
p142
g37
I20
S''
p143
(t(ttp144
Rp145
c__main__
__dict__
g37
NN(dp146
tp147
Rp148
sg17
g18
sbsg17
S'cosh(sin(x))'
p149
sba(iequation_tree
EquationTree
p150
(dp151
g3
(iequation_tree
Node
p152
(dp153
g6
g133
sg8
Nsg9
Nsg13
g23
sg15
(iequation_tree
Node
p154
(dp155
g6
g12
sg8
Nsg9
Nsg13
g14
sg15
Nsg16
Nsg17
g18
sbsg16
g148
sg17
g18
sbsg17
S'cosh(x)'
p156
sba(iequation_tree
EquationTree
p157
(dp158
g3
(iequation_tree
Node
p159
(dp160
g6
S'log'
p161
sg8
Nsg9
Nsg13
g23
sg15
(iequation_tree
Node
p162
(dp163
g6
g12
sg8
Nsg9
Nsg13
g14
sg15
Nsg16
Nsg17
g18
sbsg16
g26
(g30
(I1
I1
I3
I67
S't\x00\x00j\x01\x00t\x00\x00j\x02\x00|\x00\x00\x83\x01\x00\x83\x01\x00S'
p164
(Ntp165
(g33
g161
S'abs'
p166
tp167
(g12
tp168
S'generate_examples.py'
p169
g37
I19
S''
p170
(t(ttp171
Rp172
c__main__
__dict__
g37
NN(dp173
tp174
Rp175
sg17
g18
sbsg17
S'log(x)'
p176
sba(iequation_tree
EquationTree
p177
(dp178
g3
(iequation_tree
Node
p179
(dp180
g6
g133
sg8
Nsg9
Nsg13
g23
sg15
(iequation_tree
Node
p181
(dp182
g6
g161
sg8
Nsg9
Nsg13
g23
sg15
(iequation_tree
Node
p183
(dp184
g6
g12
sg8
Nsg9
Nsg13
g14
sg15
Nsg16
Nsg17
g18
sbsg16
g175
sg17
g18
sbsg16
g148
sg17
g18
sbsg17
S'cosh(log(x))'
p185
sba(iequation_tree
EquationTree
p186
(dp187
g3
(iequation_tree
Node
p188
(dp189
g6
S'*'
p190
sg8
Nsg9
(iequation_tree
Node
p191
(dp192
g6
g12
sg8
Nsg9
Nsg13
g14
sg15
Nsg16
Nsg17
g18
sbsg13
g19
sg15
(iequation_tree
Node
p193
(dp194
g6
g22
sg8
Nsg9
Nsg13
g23
sg15
(iequation_tree
Node
p195
(dp196
g6
g12
sg8
Nsg9
Nsg13
g14
sg15
Nsg16
Nsg17
g18
sbsg16
g43
sg17
g18
sbsg16
g26
(g30
(I2
I2
I2
I67
S'|\x00\x00|\x01\x00\x14S'
p197
(Ntp198
(t(g12
g46
tp199
S'generate_examples.py'
p200
g37
I15
S''
p201
(t(ttp202
Rp203
c__main__
__dict__
g37
NN(dp204
tp205
Rp206
sg17
g18
sbsg17
S'(x)*(sin(x))'
p207
sba(iequation_tree
EquationTree
p208
(dp209
g3
(iequation_tree
Node
p210
(dp211
g6
g190
sg8
Nsg9
(iequation_tree
Node
p212
(dp213
g6
g22
sg8
Nsg9
Nsg13
g23
sg15
(iequation_tree
Node
p214
(dp215
g6
g12
sg8
Nsg9
Nsg13
g14
sg15
Nsg16
Nsg17
g18
sbsg16
g43
sg17
g18
sbsg13
g19
sg15
(iequation_tree
Node
p216
(dp217
g6
g12
sg8
Nsg9
Nsg13
g14
sg15
Nsg16
Nsg17
g18
sbsg16
g206
sg17
g18
sbsg17
S'(sin(x))*(x)'
p218
sba(iequation_tree
EquationTree
p219
(dp220
g3
(iequation_tree
Node
p221
(dp222
g6
g190
sg8
Nsg9
(iequation_tree
Node
p223
(dp224
g6
g7
sg8
Nsg9
(iequation_tree
Node
p225
(dp226
g6
g12
sg8
Nsg9
Nsg13
g14
sg15
Nsg16
Nsg17
g18
sbsg13
g19
sg15
(iequation_tree
Node
p227
(dp228
g6
g12
sg8
Nsg9
Nsg13
g14
sg15
Nsg16
Nsg17
g18
sbsg16
g54
sg17
g18
sbsg13
g19
sg15
(iequation_tree
Node
p229
(dp230
g6
g7
sg8
Nsg9
(iequation_tree
Node
p231
(dp232
g6
g12
sg8
Nsg9
Nsg13
g14
sg15
Nsg16
Nsg17
g18
sbsg13
g19
sg15
(iequation_tree
Node
p233
(dp234
g6
g12
sg8
Nsg9
Nsg13
g14
sg15
Nsg16
Nsg17
g18
sbsg16
g54
sg17
g18
sbsg16
g206
sg17
g18
sbsg17
S'((x)+(x))*((x)+(x))'
p235
sba(iequation_tree
EquationTree
p236
(dp237
g3
(iequation_tree
Node
p238
(dp239
g6
g60
sg8
Nsg9
Nsg13
g23
sg15
(iequation_tree
Node
p240
(dp241
g6
g190
sg8
Nsg9
(iequation_tree
Node
p242
(dp243
g6
g12
sg8
Nsg9
Nsg13
g14
sg15
Nsg16
Nsg17
g18
sbsg13
g19
sg15
(iequation_tree
Node
p244
(dp245
g6
g12
sg8
Nsg9
Nsg13
g14
sg15
Nsg16
Nsg17
g18
sbsg16
g206
sg17
g18
sbsg16
g73
sg17
g18
sbsg17
S'tanh((x)*(x))'
p246
sba(iequation_tree
EquationTree
p247
(dp248
g3
(iequation_tree
Node
p249
(dp250
g6
g60
sg8
Nsg9
Nsg13
g23
sg15
(iequation_tree
Node
p251
(dp252
g6
g7
sg8
Nsg9
(iequation_tree
Node
p253
(dp254
g6
g12
sg8
Nsg9
Nsg13
g14
sg15
Nsg16
Nsg17
g18
sbsg13
g19
sg15
(iequation_tree
Node
p255
(dp256
g6
g12
sg8
Nsg9
Nsg13
g14
sg15
Nsg16
Nsg17
g18
sbsg16
g54
sg17
g18
sbsg16
g73
sg17
g18
sbsg17
S'tanh((x)+(x))'
p257
sba(iequation_tree
EquationTree
p258
(dp259
g3
(iequation_tree
Node
p260
(dp261
g6
g7
sg8
Nsg9
(iequation_tree
Node
p262
(dp263
g6
g12
sg8
Nsg9
Nsg13
g14
sg15
Nsg16
Nsg17
g18
sbsg13
g19
sg15
(iequation_tree
Node
p264
(dp265
g6
g7
sg8
Nsg9
(iequation_tree
Node
p266
(dp267
g6
g12
sg8
Nsg9
Nsg13
g14
sg15
Nsg16
Nsg17
g18
sbsg13
g19
sg15
(iequation_tree
Node
p268
(dp269
g6
g12
sg8
Nsg9
Nsg13
g14
sg15
Nsg16
Nsg17
g18
sbsg16
g54
sg17
g18
sbsg16
g54
sg17
g18
sbsg17
S'(x)+((x)+(x))'
p270
sba(iequation_tree
EquationTree
p271
(dp272
g3
(iequation_tree
Node
p273
(dp274
g6
g190
sg8
Nsg9
(iequation_tree
Node
p275
(dp276
g6
g190
sg8
Nsg9
(iequation_tree
Node
p277
(dp278
g6
g12
sg8
Nsg9
Nsg13
g14
sg15
Nsg16
Nsg17
g18
sbsg13
g19
sg15
(iequation_tree
Node
p279
(dp280
g6
g12
sg8
Nsg9
Nsg13
g14
sg15
Nsg16
Nsg17
g18
sbsg16
g206
sg17
g18
sbsg13
g19
sg15
(iequation_tree
Node
p281
(dp282
g6
g7
sg8
Nsg9
(iequation_tree
Node
p283
(dp284
g6
g12
sg8
Nsg9
Nsg13
g14
sg15
Nsg16
Nsg17
g18
sbsg13
g19
sg15
(iequation_tree
Node
p285
(dp286
g6
g12
sg8
Nsg9
Nsg13
g14
sg15
Nsg16
Nsg17
g18
sbsg16
g54
sg17
g18
sbsg16
g206
sg17
g18
sbsg17
S'((x)*(x))*((x)+(x))'
p287
sba(iequation_tree
EquationTree
p288
(dp289
g3
(iequation_tree
Node
p290
(dp291
g6
g7
sg8
Nsg9
(iequation_tree
Node
p292
(dp293
g6
g7
sg8
Nsg9
(iequation_tree
Node
p294
(dp295
g6
g12
sg8
Nsg9
Nsg13
g14
sg15
Nsg16
Nsg17
g18
sbsg13
g19
sg15
(iequation_tree
Node
p296
(dp297
g6
g12
sg8
Nsg9
Nsg13
g14
sg15
Nsg16
Nsg17
g18
sbsg16
g54
sg17
g18
sbsg13
g19
sg15
(iequation_tree
Node
p298
(dp299
g6
g60
sg8
Nsg9
Nsg13
g23
sg15
(iequation_tree
Node
p300
(dp301
g6
g12
sg8
Nsg9
Nsg13
g14
sg15
Nsg16
Nsg17
g18
sbsg16
g73
sg17
g18
sbsg16
g54
sg17
g18
sbsg17
S'((x)+(x))+(tanh(x))'
p302
sba(iequation_tree
EquationTree
p303
(dp304
g3
(iequation_tree
Node
p305
(dp306
g6
g190
sg8
Nsg9
(iequation_tree
Node
p307
(dp308
g6
g12
sg8
Nsg9
Nsg13
g14
sg15
Nsg16
Nsg17
g18
sbsg13
g19
sg15
(iequation_tree
Node
p309
(dp310
g6
g12
sg8
Nsg9
Nsg13
g14
sg15
Nsg16
Nsg17
g18
sbsg16
g206
sg17
g18
sbsg17
S'(x)*(x)'
p311
sba(iequation_tree
EquationTree
p312
(dp313
g3
(iequation_tree
Node
p314
(dp315
g6
g22
sg8
Nsg9
Nsg13
g23
sg15
(iequation_tree
Node
p316
(dp317
g6
g12
sg8
Nsg9
Nsg13
g14
sg15
Nsg16
Nsg17
g18
sbsg16
g43
sg17
g18
sbsg17
S'sin(x)'
p318
sba(iequation_tree
EquationTree
p319
(dp320
g3
(iequation_tree
Node
p321
(dp322
g6
g7
sg8
Nsg9
(iequation_tree
Node
p323
(dp324
g6
g7
sg8
Nsg9
(iequation_tree
Node
p325
(dp326
g6
g12
sg8
Nsg9
Nsg13
g14
sg15
Nsg16
Nsg17
g18
sbsg13
g19
sg15
(iequation_tree
Node
p327
(dp328
g6
g12
sg8
Nsg9
Nsg13
g14
sg15
Nsg16
Nsg17
g18
sbsg16
g54
sg17
g18
sbsg13
g19
sg15
(iequation_tree
Node
p329
(dp330
g6
g190
sg8
Nsg9
(iequation_tree
Node
p331
(dp332
g6
g12
sg8
Nsg9
Nsg13
g14
sg15
Nsg16
Nsg17
g18
sbsg13
g19
sg15
(iequation_tree
Node
p333
(dp334
g6
g12
sg8
Nsg9
Nsg13
g14
sg15
Nsg16
Nsg17
g18
sbsg16
g206
sg17
g18
sbsg16
g54
sg17
g18
sbsg17
S'((x)+(x))+((x)*(x))'
p335
sba(iequation_tree
EquationTree
p336
(dp337
g3
(iequation_tree
Node
p338
(dp339
g6
g133
sg8
Nsg9
Nsg13
g23
sg15
(iequation_tree
Node
p340
(dp341
g6
g133
sg8
Nsg9
Nsg13
g23
sg15
(iequation_tree
Node
p342
(dp343
g6
g12
sg8
Nsg9
Nsg13
g14
sg15
Nsg16
Nsg17
g18
sbsg16
g148
sg17
g18
sbsg16
g148
sg17
g18
sbsg17
S'cosh(cosh(x))'
p344
sba(iequation_tree
EquationTree
p345
(dp346
g3
(iequation_tree
Node
p347
(dp348
g6
g190
sg8
Nsg9
(iequation_tree
Node
p349
(dp350
g6
g12
sg8
Nsg9
Nsg13
g14
sg15
Nsg16
Nsg17
g18
sbsg13
g19
sg15
(iequation_tree
Node
p351
(dp352
g6
g133
sg8
Nsg9
Nsg13
g23
sg15
(iequation_tree
Node
p353
(dp354
g6
g12
sg8
Nsg9
Nsg13
g14
sg15
Nsg16
Nsg17
g18
sbsg16
g148
sg17
g18
sbsg16
g206
sg17
g18
sbsg17
S'(x)*(cosh(x))'
p355
sba(iequation_tree
EquationTree
p356
(dp357
g3
(iequation_tree
Node
p358
(dp359
g6
g7
sg8
Nsg9
(iequation_tree
Node
p360
(dp361
g6
g161
sg8
Nsg9
Nsg13
g23
sg15
(iequation_tree
Node
p362
(dp363
g6
g12
sg8
Nsg9
Nsg13
g14
sg15
Nsg16
Nsg17
g18
sbsg16
g175
sg17
g18
sbsg13
g19
sg15
(iequation_tree
Node
p364
(dp365
g6
g60
sg8
Nsg9
Nsg13
g23
sg15
(iequation_tree
Node
p366
(dp367
g6
g12
sg8
Nsg9
Nsg13
g14
sg15
Nsg16
Nsg17
g18
sbsg16
g73
sg17
g18
sbsg16
g54
sg17
g18
sbsg17
S'(log(x))+(tanh(x))'
p368
sba(iequation_tree
EquationTree
p369
(dp370
g3
(iequation_tree
Node
p371
(dp372
g6
g22
sg8
Nsg9
Nsg13
g23
sg15
(iequation_tree
Node
p373
(dp374
g6
g190
sg8
Nsg9
(iequation_tree
Node
p375
(dp376
g6
g12
sg8
Nsg9
Nsg13
g14
sg15
Nsg16
Nsg17
g18
sbsg13
g19
sg15
(iequation_tree
Node
p377
(dp378
g6
g12
sg8
Nsg9
Nsg13
g14
sg15
Nsg16
Nsg17
g18
sbsg16
g206
sg17
g18
sbsg16
g43
sg17
g18
sbsg17
S'sin((x)*(x))'
p379
sba(iequation_tree
EquationTree
p380
(dp381
g3
(iequation_tree
Node
p382
(dp383
g6
g190
sg8
Nsg9
(iequation_tree
Node
p384
(dp385
g6
g133
sg8
Nsg9
Nsg13
g23
sg15
(iequation_tree
Node
p386
(dp387
g6
g12
sg8
Nsg9
Nsg13
g14
sg15
Nsg16
Nsg17
g18
sbsg16
g148
sg17
g18
sbsg13
g19
sg15
(iequation_tree
Node
p388
(dp389
g6
g12
sg8
Nsg9
Nsg13
g14
sg15
Nsg16
Nsg17
g18
sbsg16
g206
sg17
g18
sbsg17
S'(cosh(x))*(x)'
p390
sba(iequation_tree
EquationTree
p391
(dp392
g3
(iequation_tree
Node
p393
(dp394
g6
g190
sg8
Nsg9
(iequation_tree
Node
p395
(dp396
g6
g7
sg8
Nsg9
(iequation_tree
Node
p397
(dp398
g6
g12
sg8
Nsg9
Nsg13
g14
sg15
Nsg16
Nsg17
g18
sbsg13
g19
sg15
(iequation_tree
Node
p399
(dp400
g6
g12
sg8
Nsg9
Nsg13
g14
sg15
Nsg16
Nsg17
g18
sbsg16
g54
sg17
g18
sbsg13
g19
sg15
(iequation_tree
Node
p401
(dp402
g6
g190
sg8
Nsg9
(iequation_tree
Node
p403
(dp404
g6
g12
sg8
Nsg9
Nsg13
g14
sg15
Nsg16
Nsg17
g18
sbsg13
g19
sg15
(iequation_tree
Node
p405
(dp406
g6
g12
sg8
Nsg9
Nsg13
g14
sg15
Nsg16
Nsg17
g18
sbsg16
g206
sg17
g18
sbsg16
g206
sg17
g18
sbsg17
S'((x)+(x))*((x)*(x))'
p407
sba(iequation_tree
EquationTree
p408
(dp409
g3
(iequation_tree
Node
p410
(dp411
g6
g22
sg8
Nsg9
Nsg13
g23
sg15
(iequation_tree
Node
p412
(dp413
g6
g161
sg8
Nsg9
Nsg13
g23
sg15
(iequation_tree
Node
p414
(dp415
g6
g12
sg8
Nsg9
Nsg13
g14
sg15
Nsg16
Nsg17
g18
sbsg16
g175
sg17
g18
sbsg16
g43
sg17
g18
sbsg17
S'sin(log(x))'
p416
sba(iequation_tree
EquationTree
p417
(dp418
g3
(iequation_tree
Node
p419
(dp420
g6
g190
sg8
Nsg9
(iequation_tree
Node
p421
(dp422
g6
g133
sg8
Nsg9
Nsg13
g23
sg15
(iequation_tree
Node
p423
(dp424
g6
g12
sg8
Nsg9
Nsg13
g14
sg15
Nsg16
Nsg17
g18
sbsg16
g148
sg17
g18
sbsg13
g19
sg15
(iequation_tree
Node
p425
(dp426
g6
g161
sg8
Nsg9
Nsg13
g23
sg15
(iequation_tree
Node
p427
(dp428
g6
g12
sg8
Nsg9
Nsg13
g14
sg15
Nsg16
Nsg17
g18
sbsg16
g175
sg17
g18
sbsg16
g206
sg17
g18
sbsg17
S'(cosh(x))*(log(x))'
p429
sba(iequation_tree
EquationTree
p430
(dp431
g3
(iequation_tree
Node
p432
(dp433
g6
g22
sg8
Nsg9
Nsg13
g23
sg15
(iequation_tree
Node
p434
(dp435
g6
g22
sg8
Nsg9
Nsg13
g23
sg15
(iequation_tree
Node
p436
(dp437
g6
g12
sg8
Nsg9
Nsg13
g14
sg15
Nsg16
Nsg17
g18
sbsg16
g43
sg17
g18
sbsg16
g43
sg17
g18
sbsg17
S'sin(sin(x))'
p438
sba(iequation_tree
EquationTree
p439
(dp440
g3
(iequation_tree
Node
p441
(dp442
g6
g7
sg8
Nsg9
(iequation_tree
Node
p443
(dp444
g6
g12
sg8
Nsg9
Nsg13
g14
sg15
Nsg16
Nsg17
g18
sbsg13
g19
sg15
(iequation_tree
Node
p445
(dp446
g6
g161
sg8
Nsg9
Nsg13
g23
sg15
(iequation_tree
Node
p447
(dp448
g6
g12
sg8
Nsg9
Nsg13
g14
sg15
Nsg16
Nsg17
g18
sbsg16
g175
sg17
g18
sbsg16
g54
sg17
g18
sbsg17
S'(x)+(log(x))'
p449
sba(iequation_tree
EquationTree
p450
(dp451
g3
(iequation_tree
Node
p452
(dp453
g6
g7
sg8
Nsg9
(iequation_tree
Node
p454
(dp455
g6
g190
sg8
Nsg9
(iequation_tree
Node
p456
(dp457
g6
g12
sg8
Nsg9
Nsg13
g14
sg15
Nsg16
Nsg17
g18
sbsg13
g19
sg15
(iequation_tree
Node
p458
(dp459
g6
g12
sg8
Nsg9
Nsg13
g14
sg15
Nsg16
Nsg17
g18
sbsg16
g206
sg17
g18
sbsg13
g19
sg15
(iequation_tree
Node
p460
(dp461
g6
g7
sg8
Nsg9
(iequation_tree
Node
p462
(dp463
g6
g12
sg8
Nsg9
Nsg13
g14
sg15
Nsg16
Nsg17
g18
sbsg13
g19
sg15
(iequation_tree
Node
p464
(dp465
g6
g12
sg8
Nsg9
Nsg13
g14
sg15
Nsg16
Nsg17
g18
sbsg16
g54
sg17
g18
sbsg16
g54
sg17
g18
sbsg17
S'((x)*(x))+((x)+(x))'
p466
sba(iequation_tree
EquationTree
p467
(dp468
g3
(iequation_tree
Node
p469
(dp470
g6
g190
sg8
Nsg9
(iequation_tree
Node
p471
(dp472
g6
g7
sg8
Nsg9
(iequation_tree
Node
p473
(dp474
g6
g12
sg8
Nsg9
Nsg13
g14
sg15
Nsg16
Nsg17
g18
sbsg13
g19
sg15
(iequation_tree
Node
p475
(dp476
g6
g12
sg8
Nsg9
Nsg13
g14
sg15
Nsg16
Nsg17
g18
sbsg16
g54
sg17
g18
sbsg13
g19
sg15
(iequation_tree
Node
p477
(dp478
g6
g133
sg8
Nsg9
Nsg13
g23
sg15
(iequation_tree
Node
p479
(dp480
g6
g12
sg8
Nsg9
Nsg13
g14
sg15
Nsg16
Nsg17
g18
sbsg16
g148
sg17
g18
sbsg16
g206
sg17
g18
sbsg17
S'((x)+(x))*(cosh(x))'
p481
sba(iequation_tree
EquationTree
p482
(dp483
g3
(iequation_tree
Node
p484
(dp485
g6
g22
sg8
Nsg9
Nsg13
g23
sg15
(iequation_tree
Node
p486
(dp487
g6
g7
sg8
Nsg9
(iequation_tree
Node
p488
(dp489
g6
g12
sg8
Nsg9
Nsg13
g14
sg15
Nsg16
Nsg17
g18
sbsg13
g19
sg15
(iequation_tree
Node
p490
(dp491
g6
g12
sg8
Nsg9
Nsg13
g14
sg15
Nsg16
Nsg17
g18
sbsg16
g54
sg17
g18
sbsg16
g43
sg17
g18
sbsg17
S'sin((x)+(x))'
p492
sba(iequation_tree
EquationTree
p493
(dp494
g3
(iequation_tree
Node
p495
(dp496
g6
g7
sg8
Nsg9
(iequation_tree
Node
p497
(dp498
g6
g190
sg8
Nsg9
(iequation_tree
Node
p499
(dp500
g6
g12
sg8
Nsg9
Nsg13
g14
sg15
Nsg16
Nsg17
g18
sbsg13
g19
sg15
(iequation_tree
Node
p501
(dp502
g6
g12
sg8
Nsg9
Nsg13
g14
sg15
Nsg16
Nsg17
g18
sbsg16
g206
sg17
g18
sbsg13
g19
sg15
(iequation_tree
Node
p503
(dp504
g6
g60
sg8
Nsg9
Nsg13
g23
sg15
(iequation_tree
Node
p505
(dp506
g6
g12
sg8
Nsg9
Nsg13
g14
sg15
Nsg16
Nsg17
g18
sbsg16
g73
sg17
g18
sbsg16
g54
sg17
g18
sbsg17
S'((x)*(x))+(tanh(x))'
p507
sba(iequation_tree
EquationTree
p508
(dp509
g3
(iequation_tree
Node
p510
(dp511
g6
g190
sg8
Nsg9
(iequation_tree
Node
p512
(dp513
g6
g190
sg8
Nsg9
(iequation_tree
Node
p514
(dp515
g6
g12
sg8
Nsg9
Nsg13
g14
sg15
Nsg16
Nsg17
g18
sbsg13
g19
sg15
(iequation_tree
Node
p516
(dp517
g6
g12
sg8
Nsg9
Nsg13
g14
sg15
Nsg16
Nsg17
g18
sbsg16
g206
sg17
g18
sbsg13
g19
sg15
(iequation_tree
Node
p518
(dp519
g6
g133
sg8
Nsg9
Nsg13
g23
sg15
(iequation_tree
Node
p520
(dp521
g6
g12
sg8
Nsg9
Nsg13
g14
sg15
Nsg16
Nsg17
g18
sbsg16
g148
sg17
g18
sbsg16
g206
sg17
g18
sbsg17
S'((x)*(x))*(cosh(x))'
p522
sba(iequation_tree
EquationTree
p523
(dp524
g3
(iequation_tree
Node
p525
(dp526
g6
g161
sg8
Nsg9
Nsg13
g23
sg15
(iequation_tree
Node
p527
(dp528
g6
g190
sg8
Nsg9
(iequation_tree
Node
p529
(dp530
g6
g12
sg8
Nsg9
Nsg13
g14
sg15
Nsg16
Nsg17
g18
sbsg13
g19
sg15
(iequation_tree
Node
p531
(dp532
g6
g12
sg8
Nsg9
Nsg13
g14
sg15
Nsg16
Nsg17
g18
sbsg16
g206
sg17
g18
sbsg16
g175
sg17
g18
sbsg17
S'log((x)*(x))'
p533
sba(iequation_tree
EquationTree
p534
(dp535
g3
(iequation_tree
Node
p536
(dp537
g6
g7
sg8
Nsg9
(iequation_tree
Node
p538
(dp539
g6
g190
sg8
Nsg9
(iequation_tree
Node
p540
(dp541
g6
g12
sg8
Nsg9
Nsg13
g14
sg15
Nsg16
Nsg17
g18
sbsg13
g19
sg15
(iequation_tree
Node
p542
(dp543
g6
g12
sg8
Nsg9
Nsg13
g14
sg15
Nsg16
Nsg17
g18
sbsg16
g206
sg17
g18
sbsg13
g19
sg15
(iequation_tree
Node
p544
(dp545
g6
g12
sg8
Nsg9
Nsg13
g14
sg15
Nsg16
Nsg17
g18
sbsg16
g54
sg17
g18
sbsg17
S'((x)*(x))+(x)'
p546
sba(iequation_tree
EquationTree
p547
(dp548
g3
(iequation_tree
Node
p549
(dp550
g6
g190
sg8
Nsg9
(iequation_tree
Node
p551
(dp552
g6
g12
sg8
Nsg9
Nsg13
g14
sg15
Nsg16
Nsg17
g18
sbsg13
g19
sg15
(iequation_tree
Node
p553
(dp554
g6
g7
sg8
Nsg9
(iequation_tree
Node
p555
(dp556
g6
g12
sg8
Nsg9
Nsg13
g14
sg15
Nsg16
Nsg17
g18
sbsg13
g19
sg15
(iequation_tree
Node
p557
(dp558
g6
g12
sg8
Nsg9
Nsg13
g14
sg15
Nsg16
Nsg17
g18
sbsg16
g54
sg17
g18
sbsg16
g206
sg17
g18
sbsg17
S'(x)*((x)+(x))'
p559
sba(iequation_tree
EquationTree
p560
(dp561
g3
(iequation_tree
Node
p562
(dp563
g6
g133
sg8
Nsg9
Nsg13
g23
sg15
(iequation_tree
Node
p564
(dp565
g6
g7
sg8
Nsg9
(iequation_tree
Node
p566
(dp567
g6
g12
sg8
Nsg9
Nsg13
g14
sg15
Nsg16
Nsg17
g18
sbsg13
g19
sg15
(iequation_tree
Node
p568
(dp569
g6
g12
sg8
Nsg9
Nsg13
g14
sg15
Nsg16
Nsg17
g18
sbsg16
g54
sg17
g18
sbsg16
g148
sg17
g18
sbsg17
S'cosh((x)+(x))'
p570
sba(iequation_tree
EquationTree
p571
(dp572
g3
(iequation_tree
Node
p573
(dp574
g6
g190
sg8
Nsg9
(iequation_tree
Node
p575
(dp576
g6
g190
sg8
Nsg9
(iequation_tree
Node
p577
(dp578
g6
g12
sg8
Nsg9
Nsg13
g14
sg15
Nsg16
Nsg17
g18
sbsg13
g19
sg15
(iequation_tree
Node
p579
(dp580
g6
g12
sg8
Nsg9
Nsg13
g14
sg15
Nsg16
Nsg17
g18
sbsg16
g206
sg17
g18
sbsg13
g19
sg15
(iequation_tree
Node
p581
(dp582
g6
g12
sg8
Nsg9
Nsg13
g14
sg15
Nsg16
Nsg17
g18
sbsg16
g206
sg17
g18
sbsg17
S'((x)*(x))*(x)'
p583
sba(iequation_tree
EquationTree
p584
(dp585
g3
(iequation_tree
Node
p586
(dp587
g6
g60
sg8
Nsg9
Nsg13
g23
sg15
(iequation_tree
Node
p588
(dp589
g6
g60
sg8
Nsg9
Nsg13
g23
sg15
(iequation_tree
Node
p590
(dp591
g6
g12
sg8
Nsg9
Nsg13
g14
sg15
Nsg16
Nsg17
g18
sbsg16
g73
sg17
g18
sbsg16
g73
sg17
g18
sbsg17
S'tanh(tanh(x))'
p592
sba(iequation_tree
EquationTree
p593
(dp594
g3
(iequation_tree
Node
p595
(dp596
g6
g7
sg8
Nsg9
(iequation_tree
Node
p597
(dp598
g6
g22
sg8
Nsg9
Nsg13
g23
sg15
(iequation_tree
Node
p599
(dp600
g6
g12
sg8
Nsg9
Nsg13
g14
sg15
Nsg16
Nsg17
g18
sbsg16
g43
sg17
g18
sbsg13
g19
sg15
(iequation_tree
Node
p601
(dp602
g6
g190
sg8
Nsg9
(iequation_tree
Node
p603
(dp604
g6
g12
sg8
Nsg9
Nsg13
g14
sg15
Nsg16
Nsg17
g18
sbsg13
g19
sg15
(iequation_tree
Node
p605
(dp606
g6
g12
sg8
Nsg9
Nsg13
g14
sg15
Nsg16
Nsg17
g18
sbsg16
g206
sg17
g18
sbsg16
g54
sg17
g18
sbsg17
S'(sin(x))+((x)*(x))'
p607
sba(iequation_tree
EquationTree
p608
(dp609
g3
(iequation_tree
Node
p610
(dp611
g6
g190
sg8
Nsg9
(iequation_tree
Node
p612
(dp613
g6
g22
sg8
Nsg9
Nsg13
g23
sg15
(iequation_tree
Node
p614
(dp615
g6
g12
sg8
Nsg9
Nsg13
g14
sg15
Nsg16
Nsg17
g18
sbsg16
g43
sg17
g18
sbsg13
g19
sg15
(iequation_tree
Node
p616
(dp617
g6
g190
sg8
Nsg9
(iequation_tree
Node
p618
(dp619
g6
g12
sg8
Nsg9
Nsg13
g14
sg15
Nsg16
Nsg17
g18
sbsg13
g19
sg15
(iequation_tree
Node
p620
(dp621
g6
g12
sg8
Nsg9
Nsg13
g14
sg15
Nsg16
Nsg17
g18
sbsg16
g206
sg17
g18
sbsg16
g206
sg17
g18
sbsg17
S'(sin(x))*((x)*(x))'
p622
sba(iequation_tree
EquationTree
p623
(dp624
g3
(iequation_tree
Node
p625
(dp626
g6
g7
sg8
Nsg9
(iequation_tree
Node
p627
(dp628
g6
g7
sg8
Nsg9
(iequation_tree
Node
p629
(dp630
g6
g12
sg8
Nsg9
Nsg13
g14
sg15
Nsg16
Nsg17
g18
sbsg13
g19
sg15
(iequation_tree
Node
p631
(dp632
g6
g12
sg8
Nsg9
Nsg13
g14
sg15
Nsg16
Nsg17
g18
sbsg16
g54
sg17
g18
sbsg13
g19
sg15
(iequation_tree
Node
p633
(dp634
g6
g161
sg8
Nsg9
Nsg13
g23
sg15
(iequation_tree
Node
p635
(dp636
g6
g12
sg8
Nsg9
Nsg13
g14
sg15
Nsg16
Nsg17
g18
sbsg16
g175
sg17
g18
sbsg16
g54
sg17
g18
sbsg17
S'((x)+(x))+(log(x))'
p637
sba(iequation_tree
EquationTree
p638
(dp639
g3
(iequation_tree
Node
p640
(dp641
g6
g7
sg8
Nsg9
(iequation_tree
Node
p642
(dp643
g6
g190
sg8
Nsg9
(iequation_tree
Node
p644
(dp645
g6
g12
sg8
Nsg9
Nsg13
g14
sg15
Nsg16
Nsg17
g18
sbsg13
g19
sg15
(iequation_tree
Node
p646
(dp647
g6
g12
sg8
Nsg9
Nsg13
g14
sg15
Nsg16
Nsg17
g18
sbsg16
g206
sg17
g18
sbsg13
g19
sg15
(iequation_tree
Node
p648
(dp649
g6
g190
sg8
Nsg9
(iequation_tree
Node
p650
(dp651
g6
g12
sg8
Nsg9
Nsg13
g14
sg15
Nsg16
Nsg17
g18
sbsg13
g19
sg15
(iequation_tree
Node
p652
(dp653
g6
g12
sg8
Nsg9
Nsg13
g14
sg15
Nsg16
Nsg17
g18
sbsg16
g206
sg17
g18
sbsg16
g54
sg17
g18
sbsg17
S'((x)*(x))+((x)*(x))'
p654
sba(iequation_tree
EquationTree
p655
(dp656
g3
(iequation_tree
Node
p657
(dp658
g6
g190
sg8
Nsg9
(iequation_tree
Node
p659
(dp660
g6
g60
sg8
Nsg9
Nsg13
g23
sg15
(iequation_tree
Node
p661
(dp662
g6
g12
sg8
Nsg9
Nsg13
g14
sg15
Nsg16
Nsg17
g18
sbsg16
g73
sg17
g18
sbsg13
g19
sg15
(iequation_tree
Node
p663
(dp664
g6
g190
sg8
Nsg9
(iequation_tree
Node
p665
(dp666
g6
g12
sg8
Nsg9
Nsg13
g14
sg15
Nsg16
Nsg17
g18
sbsg13
g19
sg15
(iequation_tree
Node
p667
(dp668
g6
g12
sg8
Nsg9
Nsg13
g14
sg15
Nsg16
Nsg17
g18
sbsg16
g206
sg17
g18
sbsg16
g206
sg17
g18
sbsg17
S'(tanh(x))*((x)*(x))'
p669
sba(iequation_tree
EquationTree
p670
(dp671
g3
(iequation_tree
Node
p672
(dp673
g6
g60
sg8
Nsg9
Nsg13
g23
sg15
(iequation_tree
Node
p674
(dp675
g6
g22
sg8
Nsg9
Nsg13
g23
sg15
(iequation_tree
Node
p676
(dp677
g6
g12
sg8
Nsg9
Nsg13
g14
sg15
Nsg16
Nsg17
g18
sbsg16
g43
sg17
g18
sbsg16
g73
sg17
g18
sbsg17
S'tanh(sin(x))'
p678
sba(iequation_tree
EquationTree
p679
(dp680
g3
(iequation_tree
Node
p681
(dp682
g6
g60
sg8
Nsg9
Nsg13
g23
sg15
(iequation_tree
Node
p683
(dp684
g6
g133
sg8
Nsg9
Nsg13
g23
sg15
(iequation_tree
Node
p685
(dp686
g6
g12
sg8
Nsg9
Nsg13
g14
sg15
Nsg16
Nsg17
g18
sbsg16
g148
sg17
g18
sbsg16
g73
sg17
g18
sbsg17
S'tanh(cosh(x))'
p687
sba(iequation_tree
EquationTree
p688
(dp689
g3
(iequation_tree
Node
p690
(dp691
g6
g190
sg8
Nsg9
(iequation_tree
Node
p692
(dp693
g6
g161
sg8
Nsg9
Nsg13
g23
sg15
(iequation_tree
Node
p694
(dp695
g6
g12
sg8
Nsg9
Nsg13
g14
sg15
Nsg16
Nsg17
g18
sbsg16
g175
sg17
g18
sbsg13
g19
sg15
(iequation_tree
Node
p696
(dp697
g6
g12
sg8
Nsg9
Nsg13
g14
sg15
Nsg16
Nsg17
g18
sbsg16
g206
sg17
g18
sbsg17
S'(log(x))*(x)'
p698
sba(iequation_tree
EquationTree
p699
(dp700
g3
(iequation_tree
Node
p701
(dp702
g6
g190
sg8
Nsg9
(iequation_tree
Node
p703
(dp704
g6
g60
sg8
Nsg9
Nsg13
g23
sg15
(iequation_tree
Node
p705
(dp706
g6
g12
sg8
Nsg9
Nsg13
g14
sg15
Nsg16
Nsg17
g18
sbsg16
g73
sg17
g18
sbsg13
g19
sg15
(iequation_tree
Node
p707
(dp708
g6
g60
sg8
Nsg9
Nsg13
g23
sg15
(iequation_tree
Node
p709
(dp710
g6
g12
sg8
Nsg9
Nsg13
g14
sg15
Nsg16
Nsg17
g18
sbsg16
g73
sg17
g18
sbsg16
g206
sg17
g18
sbsg17
S'(tanh(x))*(tanh(x))'
p711
sba(iequation_tree
EquationTree
p712
(dp713
g3
(iequation_tree
Node
p714
(dp715
g6
g161
sg8
Nsg9
Nsg13
g23
sg15
(iequation_tree
Node
p716
(dp717
g6
g161
sg8
Nsg9
Nsg13
g23
sg15
(iequation_tree
Node
p718
(dp719
g6
g12
sg8
Nsg9
Nsg13
g14
sg15
Nsg16
Nsg17
g18
sbsg16
g175
sg17
g18
sbsg16
g175
sg17
g18
sbsg17
S'log(log(x))'
p720
sba(iequation_tree
EquationTree
p721
(dp722
g3
(iequation_tree
Node
p723
(dp724
g6
g7
sg8
Nsg9
(iequation_tree
Node
p725
(dp726
g6
g190
sg8
Nsg9
(iequation_tree
Node
p727
(dp728
g6
g12
sg8
Nsg9
Nsg13
g14
sg15
Nsg16
Nsg17
g18
sbsg13
g19
sg15
(iequation_tree
Node
p729
(dp730
g6
g12
sg8
Nsg9
Nsg13
g14
sg15
Nsg16
Nsg17
g18
sbsg16
g206
sg17
g18
sbsg13
g19
sg15
(iequation_tree
Node
p731
(dp732
g6
g133
sg8
Nsg9
Nsg13
g23
sg15
(iequation_tree
Node
p733
(dp734
g6
g12
sg8
Nsg9
Nsg13
g14
sg15
Nsg16
Nsg17
g18
sbsg16
g148
sg17
g18
sbsg16
g54
sg17
g18
sbsg17
S'((x)*(x))+(cosh(x))'
p735
sba(iequation_tree
EquationTree
p736
(dp737
g3
(iequation_tree
Node
p738
(dp739
g6
g190
sg8
Nsg9
(iequation_tree
Node
p740
(dp741
g6
g12
sg8
Nsg9
Nsg13
g14
sg15
Nsg16
Nsg17
g18
sbsg13
g19
sg15
(iequation_tree
Node
p742
(dp743
g6
g190
sg8
Nsg9
(iequation_tree
Node
p744
(dp745
g6
g12
sg8
Nsg9
Nsg13
g14
sg15
Nsg16
Nsg17
g18
sbsg13
g19
sg15
(iequation_tree
Node
p746
(dp747
g6
g12
sg8
Nsg9
Nsg13
g14
sg15
Nsg16
Nsg17
g18
sbsg16
g206
sg17
g18
sbsg16
g206
sg17
g18
sbsg17
S'(x)*((x)*(x))'
p748
sba(iequation_tree
EquationTree
p749
(dp750
g3
(iequation_tree
Node
p751
(dp752
g6
g190
sg8
Nsg9
(iequation_tree
Node
p753
(dp754
g6
g190
sg8
Nsg9
(iequation_tree
Node
p755
(dp756
g6
g12
sg8
Nsg9
Nsg13
g14
sg15
Nsg16
Nsg17
g18
sbsg13
g19
sg15
(iequation_tree
Node
p757
(dp758
g6
g12
sg8
Nsg9
Nsg13
g14
sg15
Nsg16
Nsg17
g18
sbsg16
g206
sg17
g18
sbsg13
g19
sg15
(iequation_tree
Node
p759
(dp760
g6
g161
sg8
Nsg9
Nsg13
g23
sg15
(iequation_tree
Node
p761
(dp762
g6
g12
sg8
Nsg9
Nsg13
g14
sg15
Nsg16
Nsg17
g18
sbsg16
g175
sg17
g18
sbsg16
g206
sg17
g18
sbsg17
S'((x)*(x))*(log(x))'
p763
sba(iequation_tree
EquationTree
p764
(dp765
g3
(iequation_tree
Node
p766
(dp767
g6
g7
sg8
Nsg9
(iequation_tree
Node
p768
(dp769
g6
g12
sg8
Nsg9
Nsg13
g14
sg15
Nsg16
Nsg17
g18
sbsg13
g19
sg15
(iequation_tree
Node
p770
(dp771
g6
g12
sg8
Nsg9
Nsg13
g14
sg15
Nsg16
Nsg17
g18
sbsg16
g54
sg17
g18
sbsg17
S'(x)+(x)'
p772
sba(iequation_tree
EquationTree
p773
(dp774
g3
(iequation_tree
Node
p775
(dp776
g6
g133
sg8
Nsg9
Nsg13
g23
sg15
(iequation_tree
Node
p777
(dp778
g6
g190
sg8
Nsg9
(iequation_tree
Node
p779
(dp780
g6
g12
sg8
Nsg9
Nsg13
g14
sg15
Nsg16
Nsg17
g18
sbsg13
g19
sg15
(iequation_tree
Node
p781
(dp782
g6
g12
sg8
Nsg9
Nsg13
g14
sg15
Nsg16
Nsg17
g18
sbsg16
g206
sg17
g18
sbsg16
g148
sg17
g18
sbsg17
S'cosh((x)*(x))'
p783
sba(iequation_tree
EquationTree
p784
(dp785
g3
(iequation_tree
Node
p786
(dp787
g6
g190
sg8
Nsg9
(iequation_tree
Node
p788
(dp789
g6
g60
sg8
Nsg9
Nsg13
g23
sg15
(iequation_tree
Node
p790
(dp791
g6
g12
sg8
Nsg9
Nsg13
g14
sg15
Nsg16
Nsg17
g18
sbsg16
g73
sg17
g18
sbsg13
g19
sg15
(iequation_tree
Node
p792
(dp793
g6
g161
sg8
Nsg9
Nsg13
g23
sg15
(iequation_tree
Node
p794
(dp795
g6
g12
sg8
Nsg9
Nsg13
g14
sg15
Nsg16
Nsg17
g18
sbsg16
g175
sg17
g18
sbsg16
g206
sg17
g18
sbsg17
S'(tanh(x))*(log(x))'
p796
sba(iequation_tree
EquationTree
p797
(dp798
g3
(iequation_tree
Node
p799
(dp800
g6
g190
sg8
Nsg9
(iequation_tree
Node
p801
(dp802
g6
g22
sg8
Nsg9
Nsg13
g23
sg15
(iequation_tree
Node
p803
(dp804
g6
g12
sg8
Nsg9
Nsg13
g14
sg15
Nsg16
Nsg17
g18
sbsg16
g43
sg17
g18
sbsg13
g19
sg15
(iequation_tree
Node
p805
(dp806
g6
g22
sg8
Nsg9
Nsg13
g23
sg15
(iequation_tree
Node
p807
(dp808
g6
g12
sg8
Nsg9
Nsg13
g14
sg15
Nsg16
Nsg17
g18
sbsg16
g43
sg17
g18
sbsg16
g206
sg17
g18
sbsg17
S'(sin(x))*(sin(x))'
p809
sba(iequation_tree
EquationTree
p810
(dp811
g3
(iequation_tree
Node
p812
(dp813
g6
g7
sg8
Nsg9
(iequation_tree
Node
p814
(dp815
g6
g12
sg8
Nsg9
Nsg13
g14
sg15
Nsg16
Nsg17
g18
sbsg13
g19
sg15
(iequation_tree
Node
p816
(dp817
g6
g190
sg8
Nsg9
(iequation_tree
Node
p818
(dp819
g6
g12
sg8
Nsg9
Nsg13
g14
sg15
Nsg16
Nsg17
g18
sbsg13
g19
sg15
(iequation_tree
Node
p820
(dp821
g6
g12
sg8
Nsg9
Nsg13
g14
sg15
Nsg16
Nsg17
g18
sbsg16
g206
sg17
g18
sbsg16
g54
sg17
g18
sbsg17
S'(x)+((x)*(x))'
p822
sba(iequation_tree
EquationTree
p823
(dp824
g3
(iequation_tree
Node
p825
(dp826
g6
g161
sg8
Nsg9
Nsg13
g23
sg15
(iequation_tree
Node
p827
(dp828
g6
g7
sg8
Nsg9
(iequation_tree
Node
p829
(dp830
g6
g12
sg8
Nsg9
Nsg13
g14
sg15
Nsg16
Nsg17
g18
sbsg13
g19
sg15
(iequation_tree
Node
p831
(dp832
g6
g12
sg8
Nsg9
Nsg13
g14
sg15
Nsg16
Nsg17
g18
sbsg16
g54
sg17
g18
sbsg16
g175
sg17
g18
sbsg17
S'log((x)+(x))'
p833
sba(iequation_tree
EquationTree
p834
(dp835
g3
(iequation_tree
Node
p836
(dp837
g6
g161
sg8
Nsg9
Nsg13
g23
sg15
(iequation_tree
Node
p838
(dp839
g6
g133
sg8
Nsg9
Nsg13
g23
sg15
(iequation_tree
Node
p840
(dp841
g6
g12
sg8
Nsg9
Nsg13
g14
sg15
Nsg16
Nsg17
g18
sbsg16
g148
sg17
g18
sbsg16
g175
sg17
g18
sbsg17
S'log(cosh(x))'
p842
sba(iequation_tree
EquationTree
p843
(dp844
g3
(iequation_tree
Node
p845
(dp846
g6
g190
sg8
Nsg9
(iequation_tree
Node
p847
(dp848
g6
g133
sg8
Nsg9
Nsg13
g23
sg15
(iequation_tree
Node
p849
(dp850
g6
g12
sg8
Nsg9
Nsg13
g14
sg15
Nsg16
Nsg17
g18
sbsg16
g148
sg17
g18
sbsg13
g19
sg15
(iequation_tree
Node
p851
(dp852
g6
g7
sg8
Nsg9
(iequation_tree
Node
p853
(dp854
g6
g12
sg8
Nsg9
Nsg13
g14
sg15
Nsg16
Nsg17
g18
sbsg13
g19
sg15
(iequation_tree
Node
p855
(dp856
g6
g12
sg8
Nsg9
Nsg13
g14
sg15
Nsg16
Nsg17
g18
sbsg16
g54
sg17
g18
sbsg16
g206
sg17
g18
sbsg17
S'(cosh(x))*((x)+(x))'
p857
sba(iequation_tree
EquationTree
p858
(dp859
g3
(iequation_tree
Node
p860
(dp861
g6
g190
sg8
Nsg9
(iequation_tree
Node
p862
(dp863
g6
g12
sg8
Nsg9
Nsg13
g14
sg15
Nsg16
Nsg17
g18
sbsg13
g19
sg15
(iequation_tree
Node
p864
(dp865
g6
g60
sg8
Nsg9
Nsg13
g23
sg15
(iequation_tree
Node
p866
(dp867
g6
g12
sg8
Nsg9
Nsg13
g14
sg15
Nsg16
Nsg17
g18
sbsg16
g73
sg17
g18
sbsg16
g206
sg17
g18
sbsg17
S'(x)*(tanh(x))'
p868
sba(iequation_tree
EquationTree
p869
(dp870
g3
(iequation_tree
Node
p871
(dp872
g6
g190
sg8
Nsg9
(iequation_tree
Node
p873
(dp874
g6
g22
sg8
Nsg9
Nsg13
g23
sg15
(iequation_tree
Node
p875
(dp876
g6
g12
sg8
Nsg9
Nsg13
g14
sg15
Nsg16
Nsg17
g18
sbsg16
g43
sg17
g18
sbsg13
g19
sg15
(iequation_tree
Node
p877
(dp878
g6
g7
sg8
Nsg9
(iequation_tree
Node
p879
(dp880
g6
g12
sg8
Nsg9
Nsg13
g14
sg15
Nsg16
Nsg17
g18
sbsg13
g19
sg15
(iequation_tree
Node
p881
(dp882
g6
g12
sg8
Nsg9
Nsg13
g14
sg15
Nsg16
Nsg17
g18
sbsg16
g54
sg17
g18
sbsg16
g206
sg17
g18
sbsg17
S'(sin(x))*((x)+(x))'
p883
sba(iequation_tree
EquationTree
p884
(dp885
g3
(iequation_tree
Node
p886
(dp887
g6
g7
sg8
Nsg9
(iequation_tree
Node
p888
(dp889
g6
g133
sg8
Nsg9
Nsg13
g23
sg15
(iequation_tree
Node
p890
(dp891
g6
g12
sg8
Nsg9
Nsg13
g14
sg15
Nsg16
Nsg17
g18
sbsg16
g148
sg17
g18
sbsg13
g19
sg15
(iequation_tree
Node
p892
(dp893
g6
g12
sg8
Nsg9
Nsg13
g14
sg15
Nsg16
Nsg17
g18
sbsg16
g54
sg17
g18
sbsg17
S'(cosh(x))+(x)'
p894
sba(iequation_tree
EquationTree
p895
(dp896
g3
(iequation_tree
Node
p897
(dp898
g6
g190
sg8
Nsg9
(iequation_tree
Node
p899
(dp900
g6
g7
sg8
Nsg9
(iequation_tree
Node
p901
(dp902
g6
g12
sg8
Nsg9
Nsg13
g14
sg15
Nsg16
Nsg17
g18
sbsg13
g19
sg15
(iequation_tree
Node
p903
(dp904
g6
g12
sg8
Nsg9
Nsg13
g14
sg15
Nsg16
Nsg17
g18
sbsg16
g54
sg17
g18
sbsg13
g19
sg15
(iequation_tree
Node
p905
(dp906
g6
g22
sg8
Nsg9
Nsg13
g23
sg15
(iequation_tree
Node
p907
(dp908
g6
g12
sg8
Nsg9
Nsg13
g14
sg15
Nsg16
Nsg17
g18
sbsg16
g43
sg17
g18
sbsg16
g206
sg17
g18
sbsg17
S'((x)+(x))*(sin(x))'
p909
sba(iequation_tree
EquationTree
p910
(dp911
g3
(iequation_tree
Node
p912
(dp913
g6
g7
sg8
Nsg9
(iequation_tree
Node
p914
(dp915
g6
g133
sg8
Nsg9
Nsg13
g23
sg15
(iequation_tree
Node
p916
(dp917
g6
g12
sg8
Nsg9
Nsg13
g14
sg15
Nsg16
Nsg17
g18
sbsg16
g148
sg17
g18
sbsg13
g19
sg15
(iequation_tree
Node
p918
(dp919
g6
g22
sg8
Nsg9
Nsg13
g23
sg15
(iequation_tree
Node
p920
(dp921
g6
g12
sg8
Nsg9
Nsg13
g14
sg15
Nsg16
Nsg17
g18
sbsg16
g43
sg17
g18
sbsg16
g54
sg17
g18
sbsg17
S'(cosh(x))+(sin(x))'
p922
sba(iequation_tree
EquationTree
p923
(dp924
g3
(iequation_tree
Node
p925
(dp926
g6
g190
sg8
Nsg9
(iequation_tree
Node
p927
(dp928
g6
g7
sg8
Nsg9
(iequation_tree
Node
p929
(dp930
g6
g12
sg8
Nsg9
Nsg13
g14
sg15
Nsg16
Nsg17
g18
sbsg13
g19
sg15
(iequation_tree
Node
p931
(dp932
g6
g12
sg8
Nsg9
Nsg13
g14
sg15
Nsg16
Nsg17
g18
sbsg16
g54
sg17
g18
sbsg13
g19
sg15
(iequation_tree
Node
p933
(dp934
g6
g12
sg8
Nsg9
Nsg13
g14
sg15
Nsg16
Nsg17
g18
sbsg16
g206
sg17
g18
sbsg17
S'((x)+(x))*(x)'
p935
sba.