(lp0
(iequation_tree
EquationTree
p1
(dp2
S'head'
p3
(iequation_tree
Node
p4
(dp5
S'name'
p6
S'x'
p7
sS'val'
p8
NsS'nextL'
p9
NsS'eq_class'
p10
S'const'
p11
sS'nextR'
p12
NsS'anon_fn'
p13
NsS'string_rep'
p14
S''
p15
sbsg14
g7
sba(iequation_tree
EquationTree
p16
(dp17
g3
(iequation_tree
Node
p18
(dp19
g6
S'tanh'
p20
sg8
Nsg9
Nsg10
S'fn'
p21
sg12
(iequation_tree
Node
p22
(dp23
g6
g7
sg8
Nsg9
Nsg10
g11
sg12
Nsg13
Nsg14
g15
sbsg13
cdill.dill
_create_function
p24
(cdill.dill
_load_type
p25
(S'CodeType'
p26
tp27
Rp28
(I1
I1
I2
I67
S't\x00\x00j\x01\x00|\x00\x00\x83\x01\x00S'
p29
(Ntp30
(S'np'
p31
g20
tp32
(g7
tp33
S'generate_examples.py'
p34
S'<lambda>'
p35
I17
S''
p36
(t(ttp37
Rp38
c__main__
__dict__
g35
NN(dp39
tp40
Rp41
sg14
g15
sbsg14
S'tanh(x)'
p42
sba(iequation_tree
EquationTree
p43
(dp44
g3
(iequation_tree
Node
p45
(dp46
g6
S'sin'
p47
sg8
Nsg9
Nsg10
g21
sg12
(iequation_tree
Node
p48
(dp49
g6
g47
sg8
Nsg9
Nsg10
g21
sg12
(iequation_tree
Node
p50
(dp51
g6
g7
sg8
Nsg9
Nsg10
g11
sg12
Nsg13
Nsg14
g15
sbsg13
g24
(g28
(I1
I1
I2
I67
S't\x00\x00j\x01\x00|\x00\x00\x83\x01\x00S'
p52
(Ntp53
(g31
g47
tp54
(g7
tp55
S'generate_examples.py'
p56
g35
I12
S''
p57
(t(ttp58
Rp59
c__main__
__dict__
g35
NN(dp60
tp61
Rp62
sg14
g15
sbsg13
g62
sg14
g15
sbsg14
S'sin(sin(x))'
p63
sba(iequation_tree
EquationTree
p64
(dp65
g3
(iequation_tree
Node
p66
(dp67
g6
S'cos'
p68
sg8
Nsg9
Nsg10
g21
sg12
(iequation_tree
Node
p69
(dp70
g6
g7
sg8
Nsg9
Nsg10
g11
sg12
Nsg13
Nsg14
g15
sbsg13
g24
(g28
(I1
I1
I2
I67
S't\x00\x00j\x01\x00|\x00\x00\x83\x01\x00S'
p71
(Ntp72
(g31
g68
tp73
(g7
tp74
S'generate_examples.py'
p75
g35
I13
S''
p76
(t(ttp77
Rp78
c__main__
__dict__
g35
NN(dp79
tp80
Rp81
sg14
g15
sbsg14
S'cos(x)'
p82
sba(iequation_tree
EquationTree
p83
(dp84
g3
(iequation_tree
Node
p85
(dp86
g6
g7
sg8
Nsg9
Nsg10
g11
sg12
Nsg13
Nsg14
g15
sbsg14
g7
sba(iequation_tree
EquationTree
p87
(dp88
g3
(iequation_tree
Node
p89
(dp90
g6
g68
sg8
Nsg9
Nsg10
g21
sg12
(iequation_tree
Node
p91
(dp92
g6
g7
sg8
Nsg9
Nsg10
g11
sg12
Nsg13
Nsg14
g15
sbsg13
g81
sg14
g15
sbsg14
S'cos(x)'
p93
sba(iequation_tree
EquationTree
p94
(dp95
g3
(iequation_tree
Node
p96
(dp97
g6
S'+'
p98
sg8
Nsg9
(iequation_tree
Node
p99
(dp100
g6
g7
sg8
Nsg9
Nsg10
g11
sg12
Nsg13
Nsg14
g15
sbsg10
S'op'
p101
sg12
(iequation_tree
Node
p102
(dp103
g6
g7
sg8
Nsg9
Nsg10
g11
sg12
Nsg13
Nsg14
g15
sbsg13
g24
(g28
(I2
I2
I2
I67
S'|\x00\x00|\x01\x00\x17S'
p104
(Ntp105
(t(g7
S'y'
p106
tp107
S'generate_examples.py'
p108
g35
I15
S''
p109
(t(ttp110
Rp111
c__main__
__dict__
g35
NN(dp112
tp113
Rp114
sg14
g15
sbsg14
S'(x)+(x)'
p115
sba(iequation_tree
EquationTree
p116
(dp117
g3
(iequation_tree
Node
p118
(dp119
g6
g98
sg8
Nsg9
(iequation_tree
Node
p120
(dp121
g6
g68
sg8
Nsg9
Nsg10
g21
sg12
(iequation_tree
Node
p122
(dp123
g6
g7
sg8
Nsg9
Nsg10
g11
sg12
Nsg13
Nsg14
g15
sbsg13
g81
sg14
g15
sbsg10
g101
sg12
(iequation_tree
Node
p124
(dp125
g6
g47
sg8
Nsg9
Nsg10
g21
sg12
(iequation_tree
Node
p126
(dp127
g6
g7
sg8
Nsg9
Nsg10
g11
sg12
Nsg13
Nsg14
g15
sbsg13
g62
sg14
g15
sbsg13
g114
sg14
g15
sbsg14
S'(cos(x))+(sin(x))'
p128
sba(iequation_tree
EquationTree
p129
(dp130
g3
(iequation_tree
Node
p131
(dp132
g6
g20
sg8
Nsg9
Nsg10
g21
sg12
(iequation_tree
Node
p133
(dp134
g6
S'*'
p135
sg8
Nsg9
(iequation_tree
Node
p136
(dp137
g6
g7
sg8
Nsg9
Nsg10
g11
sg12
Nsg13
Nsg14
g15
sbsg10
g101
sg12
(iequation_tree
Node
p138
(dp139
g6
g7
sg8
Nsg9
Nsg10
g11
sg12
Nsg13
Nsg14
g15
sbsg13
g24
(g28
(I2
I2
I2
I67
S'|\x00\x00|\x01\x00\x14S'
p140
(Ntp141
(t(g7
g106
tp142
S'generate_examples.py'
p143
g35
I16
S''
p144
(t(ttp145
Rp146
c__main__
__dict__
g35
NN(dp147
tp148
Rp149
sg14
g15
sbsg13
g41
sg14
g15
sbsg14
S'tanh((x)*(x))'
p150
sba(iequation_tree
EquationTree
p151
(dp152
g3
(iequation_tree
Node
p153
(dp154
g6
g47
sg8
Nsg9
Nsg10
g21
sg12
(iequation_tree
Node
p155
(dp156
g6
g7
sg8
Nsg9
Nsg10
g11
sg12
Nsg13
Nsg14
g15
sbsg13
g62
sg14
g15
sbsg14
S'sin(x)'
p157
sba(iequation_tree
EquationTree
p158
(dp159
g3
(iequation_tree
Node
p160
(dp161
g6
g135
sg8
Nsg9
(iequation_tree
Node
p162
(dp163
g6
g135
sg8
Nsg9
(iequation_tree
Node
p164
(dp165
g6
g7
sg8
Nsg9
Nsg10
g11
sg12
Nsg13
Nsg14
g15
sbsg10
g101
sg12
(iequation_tree
Node
p166
(dp167
g6
g7
sg8
Nsg9
Nsg10
g11
sg12
Nsg13
Nsg14
g15
sbsg13
g149
sg14
g15
sbsg10
g101
sg12
(iequation_tree
Node
p168
(dp169
g6
g135
sg8
Nsg9
(iequation_tree
Node
p170
(dp171
g6
g7
sg8
Nsg9
Nsg10
g11
sg12
Nsg13
Nsg14
g15
sbsg10
g101
sg12
(iequation_tree
Node
p172
(dp173
g6
g7
sg8
Nsg9
Nsg10
g11
sg12
Nsg13
Nsg14
g15
sbsg13
g149
sg14
g15
sbsg13
g149
sg14
g15
sbsg14
S'((x)*(x))*((x)*(x))'
p174
sba(iequation_tree
EquationTree
p175
(dp176
g3
(iequation_tree
Node
p177
(dp178
g6
g20
sg8
Nsg9
Nsg10
g21
sg12
(iequation_tree
Node
p179
(dp180
g6
g68
sg8
Nsg9
Nsg10
g21
sg12
(iequation_tree
Node
p181
(dp182
g6
g7
sg8
Nsg9
Nsg10
g11
sg12
Nsg13
Nsg14
g15
sbsg13
g81
sg14
g15
sbsg13
g41
sg14
g15
sbsg14
S'tanh(cos(x))'
p183
sba(iequation_tree
EquationTree
p184
(dp185
g3
(iequation_tree
Node
p186
(dp187
g6
g20
sg8
Nsg9
Nsg10
g21
sg12
(iequation_tree
Node
p188
(dp189
g6
g98
sg8
Nsg9
(iequation_tree
Node
p190
(dp191
g6
g7
sg8
Nsg9
Nsg10
g11
sg12
Nsg13
Nsg14
g15
sbsg10
g101
sg12
(iequation_tree
Node
p192
(dp193
g6
g7
sg8
Nsg9
Nsg10
g11
sg12
Nsg13
Nsg14
g15
sbsg13
g114
sg14
g15
sbsg13
g41
sg14
g15
sbsg14
S'tanh((x)+(x))'
p194
sba(iequation_tree
EquationTree
p195
(dp196
g3
(iequation_tree
Node
p197
(dp198
g6
g7
sg8
Nsg9
Nsg10
g11
sg12
Nsg13
Nsg14
g15
sbsg14
g7
sba(iequation_tree
EquationTree
p199
(dp200
g3
(iequation_tree
Node
p201
(dp202
g6
g47
sg8
Nsg9
Nsg10
g21
sg12
(iequation_tree
Node
p203
(dp204
g6
g7
sg8
Nsg9
Nsg10
g11
sg12
Nsg13
Nsg14
g15
sbsg13
g62
sg14
g15
sbsg14
S'sin(x)'
p205
sba(iequation_tree
EquationTree
p206
(dp207
g3
(iequation_tree
Node
p208
(dp209
g6
g98
sg8
Nsg9
(iequation_tree
Node
p210
(dp211
g6
g20
sg8
Nsg9
Nsg10
g21
sg12
(iequation_tree
Node
p212
(dp213
g6
g7
sg8
Nsg9
Nsg10
g11
sg12
Nsg13
Nsg14
g15
sbsg13
g41
sg14
g15
sbsg10
g101
sg12
(iequation_tree
Node
p214
(dp215
g6
g68
sg8
Nsg9
Nsg10
g21
sg12
(iequation_tree
Node
p216
(dp217
g6
g7
sg8
Nsg9
Nsg10
g11
sg12
Nsg13
Nsg14
g15
sbsg13
g81
sg14
g15
sbsg13
g114
sg14
g15
sbsg14
S'(tanh(x))+(cos(x))'
p218
sba(iequation_tree
EquationTree
p219
(dp220
g3
(iequation_tree
Node
p221
(dp222
g6
g7
sg8
Nsg9
Nsg10
g11
sg12
Nsg13
Nsg14
g15
sbsg14
g7
sba(iequation_tree
EquationTree
p223
(dp224
g3
(iequation_tree
Node
p225
(dp226
g6
g47
sg8
Nsg9
Nsg10
g21
sg12
(iequation_tree
Node
p227
(dp228
g6
g98
sg8
Nsg9
(iequation_tree
Node
p229
(dp230
g6
g7
sg8
Nsg9
Nsg10
g11
sg12
Nsg13
Nsg14
g15
sbsg10
g101
sg12
(iequation_tree
Node
p231
(dp232
g6
g7
sg8
Nsg9
Nsg10
g11
sg12
Nsg13
Nsg14
g15
sbsg13
g114
sg14
g15
sbsg13
g62
sg14
g15
sbsg14
S'sin((x)+(x))'
p233
sba(iequation_tree
EquationTree
p234
(dp235
g3
(iequation_tree
Node
p236
(dp237
g6
g47
sg8
Nsg9
Nsg10
g21
sg12
(iequation_tree
Node
p238
(dp239
g6
g135
sg8
Nsg9
(iequation_tree
Node
p240
(dp241
g6
g7
sg8
Nsg9
Nsg10
g11
sg12
Nsg13
Nsg14
g15
sbsg10
g101
sg12
(iequation_tree
Node
p242
(dp243
g6
g7
sg8
Nsg9
Nsg10
g11
sg12
Nsg13
Nsg14
g15
sbsg13
g149
sg14
g15
sbsg13
g62
sg14
g15
sbsg14
S'sin((x)*(x))'
p244
sba(iequation_tree
EquationTree
p245
(dp246
g3
(iequation_tree
Node
p247
(dp248
g6
g7
sg8
Nsg9
Nsg10
g11
sg12
Nsg13
Nsg14
g15
sbsg14
g7
sba(iequation_tree
EquationTree
p249
(dp250
g3
(iequation_tree
Node
p251
(dp252
g6
g135
sg8
Nsg9
(iequation_tree
Node
p253
(dp254
g6
g7
sg8
Nsg9
Nsg10
g11
sg12
Nsg13
Nsg14
g15
sbsg10
g101
sg12
(iequation_tree
Node
p255
(dp256
g6
g20
sg8
Nsg9
Nsg10
g21
sg12
(iequation_tree
Node
p257
(dp258
g6
g7
sg8
Nsg9
Nsg10
g11
sg12
Nsg13
Nsg14
g15
sbsg13
g41
sg14
g15
sbsg13
g149
sg14
g15
sbsg14
S'(x)*(tanh(x))'
p259
sba(iequation_tree
EquationTree
p260
(dp261
g3
(iequation_tree
Node
p262
(dp263
g6
g47
sg8
Nsg9
Nsg10
g21
sg12
(iequation_tree
Node
p264
(dp265
g6
g135
sg8
Nsg9
(iequation_tree
Node
p266
(dp267
g6
g7
sg8
Nsg9
Nsg10
g11
sg12
Nsg13
Nsg14
g15
sbsg10
g101
sg12
(iequation_tree
Node
p268
(dp269
g6
g7
sg8
Nsg9
Nsg10
g11
sg12
Nsg13
Nsg14
g15
sbsg13
g149
sg14
g15
sbsg13
g62
sg14
g15
sbsg14
S'sin((x)*(x))'
p270
sba(iequation_tree
EquationTree
p271
(dp272
g3
(iequation_tree
Node
p273
(dp274
g6
g7
sg8
Nsg9
Nsg10
g11
sg12
Nsg13
Nsg14
g15
sbsg14
g7
sba(iequation_tree
EquationTree
p275
(dp276
g3
(iequation_tree
Node
p277
(dp278
g6
g47
sg8
Nsg9
Nsg10
g21
sg12
(iequation_tree
Node
p279
(dp280
g6
g135
sg8
Nsg9
(iequation_tree
Node
p281
(dp282
g6
g7
sg8
Nsg9
Nsg10
g11
sg12
Nsg13
Nsg14
g15
sbsg10
g101
sg12
(iequation_tree
Node
p283
(dp284
g6
g7
sg8
Nsg9
Nsg10
g11
sg12
Nsg13
Nsg14
g15
sbsg13
g149
sg14
g15
sbsg13
g62
sg14
g15
sbsg14
S'sin((x)*(x))'
p285
sba(iequation_tree
EquationTree
p286
(dp287
g3
(iequation_tree
Node
p288
(dp289
g6
g135
sg8
Nsg9
(iequation_tree
Node
p290
(dp291
g6
g135
sg8
Nsg9
(iequation_tree
Node
p292
(dp293
g6
g7
sg8
Nsg9
Nsg10
g11
sg12
Nsg13
Nsg14
g15
sbsg10
g101
sg12
(iequation_tree
Node
p294
(dp295
g6
g7
sg8
Nsg9
Nsg10
g11
sg12
Nsg13
Nsg14
g15
sbsg13
g149
sg14
g15
sbsg10
g101
sg12
(iequation_tree
Node
p296
(dp297
g6
g47
sg8
Nsg9
Nsg10
g21
sg12
(iequation_tree
Node
p298
(dp299
g6
g7
sg8
Nsg9
Nsg10
g11
sg12
Nsg13
Nsg14
g15
sbsg13
g62
sg14
g15
sbsg13
g149
sg14
g15
sbsg14
S'((x)*(x))*(sin(x))'
p300
sba(iequation_tree
EquationTree
p301
(dp302
g3
(iequation_tree
Node
p303
(dp304
g6
g98
sg8
Nsg9
(iequation_tree
Node
p305
(dp306
g6
g7
sg8
Nsg9
Nsg10
g11
sg12
Nsg13
Nsg14
g15
sbsg10
g101
sg12
(iequation_tree
Node
p307
(dp308
g6
g7
sg8
Nsg9
Nsg10
g11
sg12
Nsg13
Nsg14
g15
sbsg13
g114
sg14
g15
sbsg14
S'(x)+(x)'
p309
sba(iequation_tree
EquationTree
p310
(dp311
g3
(iequation_tree
Node
p312
(dp313
g6
g47
sg8
Nsg9
Nsg10
g21
sg12
(iequation_tree
Node
p314
(dp315
g6
g7
sg8
Nsg9
Nsg10
g11
sg12
Nsg13
Nsg14
g15
sbsg13
g62
sg14
g15
sbsg14
S'sin(x)'
p316
sba(iequation_tree
EquationTree
p317
(dp318
g3
(iequation_tree
Node
p319
(dp320
g6
g7
sg8
Nsg9
Nsg10
g11
sg12
Nsg13
Nsg14
g15
sbsg14
g7
sba(iequation_tree
EquationTree
p321
(dp322
g3
(iequation_tree
Node
p323
(dp324
g6
g68
sg8
Nsg9
Nsg10
g21
sg12
(iequation_tree
Node
p325
(dp326
g6
g135
sg8
Nsg9
(iequation_tree
Node
p327
(dp328
g6
g7
sg8
Nsg9
Nsg10
g11
sg12
Nsg13
Nsg14
g15
sbsg10
g101
sg12
(iequation_tree
Node
p329
(dp330
g6
g7
sg8
Nsg9
Nsg10
g11
sg12
Nsg13
Nsg14
g15
sbsg13
g149
sg14
g15
sbsg13
g81
sg14
g15
sbsg14
S'cos((x)*(x))'
p331
sba(iequation_tree
EquationTree
p332
(dp333
g3
(iequation_tree
Node
p334
(dp335
g6
g7
sg8
Nsg9
Nsg10
g11
sg12
Nsg13
Nsg14
g15
sbsg14
g7
sba(iequation_tree
EquationTree
p336
(dp337
g3
(iequation_tree
Node
p338
(dp339
g6
g20
sg8
Nsg9
Nsg10
g21
sg12
(iequation_tree
Node
p340
(dp341
g6
g68
sg8
Nsg9
Nsg10
g21
sg12
(iequation_tree
Node
p342
(dp343
g6
g7
sg8
Nsg9
Nsg10
g11
sg12
Nsg13
Nsg14
g15
sbsg13
g81
sg14
g15
sbsg13
g41
sg14
g15
sbsg14
S'tanh(cos(x))'
p344
sba(iequation_tree
EquationTree
p345
(dp346
g3
(iequation_tree
Node
p347
(dp348
g6
g7
sg8
Nsg9
Nsg10
g11
sg12
Nsg13
Nsg14
g15
sbsg14
g7
sba(iequation_tree
EquationTree
p349
(dp350
g3
(iequation_tree
Node
p351
(dp352
g6
g7
sg8
Nsg9
Nsg10
g11
sg12
Nsg13
Nsg14
g15
sbsg14
g7
sba(iequation_tree
EquationTree
p353
(dp354
g3
(iequation_tree
Node
p355
(dp356
g6
g68
sg8
Nsg9
Nsg10
g21
sg12
(iequation_tree
Node
p357
(dp358
g6
g98
sg8
Nsg9
(iequation_tree
Node
p359
(dp360
g6
g7
sg8
Nsg9
Nsg10
g11
sg12
Nsg13
Nsg14
g15
sbsg10
g101
sg12
(iequation_tree
Node
p361
(dp362
g6
g7
sg8
Nsg9
Nsg10
g11
sg12
Nsg13
Nsg14
g15
sbsg13
g114
sg14
g15
sbsg13
g81
sg14
g15
sbsg14
S'cos((x)+(x))'
p363
sba(iequation_tree
EquationTree
p364
(dp365
g3
(iequation_tree
Node
p366
(dp367
g6
g7
sg8
Nsg9
Nsg10
g11
sg12
Nsg13
Nsg14
g15
sbsg14
g7
sba(iequation_tree
EquationTree
p368
(dp369
g3
(iequation_tree
Node
p370
(dp371
g6
g98
sg8
Nsg9
(iequation_tree
Node
p372
(dp373
g6
g135
sg8
Nsg9
(iequation_tree
Node
p374
(dp375
g6
g7
sg8
Nsg9
Nsg10
g11
sg12
Nsg13
Nsg14
g15
sbsg10
g101
sg12
(iequation_tree
Node
p376
(dp377
g6
g7
sg8
Nsg9
Nsg10
g11
sg12
Nsg13
Nsg14
g15
sbsg13
g149
sg14
g15
sbsg10
g101
sg12
(iequation_tree
Node
p378
(dp379
g6
g7
sg8
Nsg9
Nsg10
g11
sg12
Nsg13
Nsg14
g15
sbsg13
g114
sg14
g15
sbsg14
S'((x)*(x))+(x)'
p380
sba(iequation_tree
EquationTree
p381
(dp382
g3
(iequation_tree
Node
p383
(dp384
g6
g135
sg8
Nsg9
(iequation_tree
Node
p385
(dp386
g6
g68
sg8
Nsg9
Nsg10
g21
sg12
(iequation_tree
Node
p387
(dp388
g6
g7
sg8
Nsg9
Nsg10
g11
sg12
Nsg13
Nsg14
g15
sbsg13
g81
sg14
g15
sbsg10
g101
sg12
(iequation_tree
Node
p389
(dp390
g6
g98
sg8
Nsg9
(iequation_tree
Node
p391
(dp392
g6
g7
sg8
Nsg9
Nsg10
g11
sg12
Nsg13
Nsg14
g15
sbsg10
g101
sg12
(iequation_tree
Node
p393
(dp394
g6
g7
sg8
Nsg9
Nsg10
g11
sg12
Nsg13
Nsg14
g15
sbsg13
g114
sg14
g15
sbsg13
g149
sg14
g15
sbsg14
S'(cos(x))*((x)+(x))'
p395
sba(iequation_tree
EquationTree
p396
(dp397
g3
(iequation_tree
Node
p398
(dp399
g6
g135
sg8
Nsg9
(iequation_tree
Node
p400
(dp401
g6
g98
sg8
Nsg9
(iequation_tree
Node
p402
(dp403
g6
g7
sg8
Nsg9
Nsg10
g11
sg12
Nsg13
Nsg14
g15
sbsg10
g101
sg12
(iequation_tree
Node
p404
(dp405
g6
g7
sg8
Nsg9
Nsg10
g11
sg12
Nsg13
Nsg14
g15
sbsg13
g114
sg14
g15
sbsg10
g101
sg12
(iequation_tree
Node
p406
(dp407
g6
g135
sg8
Nsg9
(iequation_tree
Node
p408
(dp409
g6
g7
sg8
Nsg9
Nsg10
g11
sg12
Nsg13
Nsg14
g15
sbsg10
g101
sg12
(iequation_tree
Node
p410
(dp411
g6
g7
sg8
Nsg9
Nsg10
g11
sg12
Nsg13
Nsg14
g15
sbsg13
g149
sg14
g15
sbsg13
g149
sg14
g15
sbsg14
S'((x)+(x))*((x)*(x))'
p412
sba(iequation_tree
EquationTree
p413
(dp414
g3
(iequation_tree
Node
p415
(dp416
g6
g47
sg8
Nsg9
Nsg10
g21
sg12
(iequation_tree
Node
p417
(dp418
g6
g7
sg8
Nsg9
Nsg10
g11
sg12
Nsg13
Nsg14
g15
sbsg13
g62
sg14
g15
sbsg14
S'sin(x)'
p419
sba(iequation_tree
EquationTree
p420
(dp421
g3
(iequation_tree
Node
p422
(dp423
g6
g68
sg8
Nsg9
Nsg10
g21
sg12
(iequation_tree
Node
p424
(dp425
g6
g135
sg8
Nsg9
(iequation_tree
Node
p426
(dp427
g6
g7
sg8
Nsg9
Nsg10
g11
sg12
Nsg13
Nsg14
g15
sbsg10
g101
sg12
(iequation_tree
Node
p428
(dp429
g6
g7
sg8
Nsg9
Nsg10
g11
sg12
Nsg13
Nsg14
g15
sbsg13
g149
sg14
g15
sbsg13
g81
sg14
g15
sbsg14
S'cos((x)*(x))'
p430
sba.